

Microchip MPLAB XC8 Assembler V2.32 build 20210201212658 
                                                                                               Wed Sep 15 01:02:49 2021

Microchip MPLAB XC8 C Compiler v2.32 (Free license) build 20210201212658 Og1 
     1                           	processor	16F1615
     2                           	pagewidth 120
     3                           	opt	flic
     4                           	psect	idataBANK2,global,class=CODE,delta=2,noexec
     5                           	psect	idataBANK4,global,class=CODE,delta=2,noexec
     6                           	psect	idataBANK5,global,class=CODE,delta=2,noexec
     7                           	psect	stringtext1,global,class=STRCODE,delta=2,noexec
     8                           	psect	stringtext2,global,class=STRCODE,delta=2,noexec
     9                           	psect	stringtext3,global,class=STRCODE,delta=2,noexec
    10                           	psect	stringtext4,global,class=STRCODE,delta=2,noexec
    11                           	psect	stringtext5,global,class=STRCODE,delta=2,noexec
    12                           	psect	stringtext6,global,class=STRCODE,delta=2,noexec
    13                           	psect	cinit,global,class=CODE,merge=1,delta=2
    14                           	psect	bssBANK1,global,class=BANK1,space=1,delta=1,noexec
    15                           	psect	bssBANK2,global,class=BANK2,space=1,delta=1,noexec
    16                           	psect	dataBANK2,global,class=BANK2,space=1,delta=1,noexec
    17                           	psect	bssBANK3,global,class=BANK3,space=1,delta=1,noexec
    18                           	psect	dataBANK4,global,class=BANK4,space=1,delta=1,noexec
    19                           	psect	dataBANK5,global,class=BANK5,space=1,delta=1,noexec
    20                           	psect	inittext,global,class=CODE,delta=2
    21                           	psect	clrtext,global,class=CODE,delta=2
    22                           	psect	cstackBANK3,global,class=BANK3,space=1,delta=1,noexec
    23                           	psect	cstackBANK2,global,class=BANK2,space=1,delta=1,noexec
    24                           	psect	cstackBANK1,global,class=BANK1,space=1,delta=1,noexec
    25                           	psect	cstackCOMMON,global,class=COMMON,space=1,delta=1,noexec
    26                           	psect	cstackBANK0,global,class=BANK0,space=1,delta=1,noexec
    27                           	psect	maintext,global,class=CODE,merge=1,split=1,delta=2
    28                           	psect	text1,local,class=CODE,merge=1,delta=2
    29                           	psect	text2,local,class=CODE,merge=1,delta=2,group=2
    30                           	psect	text3,local,class=CODE,merge=1,delta=2,group=1
    31                           	psect	text4,local,class=CODE,merge=1,delta=2,group=1
    32                           	psect	text5,local,class=CODE,merge=1,delta=2,group=1
    33                           	psect	text6,local,class=CODE,merge=1,delta=2,group=1
    34                           	psect	text7,local,class=CODE,merge=1,delta=2,group=1
    35                           	psect	text8,local,class=CODE,merge=1,delta=2,group=1
    36                           	psect	text9,local,class=CODE,merge=1,delta=2
    37                           	psect	text10,local,class=CODE,merge=1,delta=2
    38                           	psect	text11,local,class=CODE,merge=1,delta=2
    39                           	psect	text12,local,class=CODE,merge=1,delta=2
    40                           	psect	text13,local,class=CODE,merge=1,delta=2
    41                           	psect	text14,local,class=CODE,merge=1,delta=2
    42                           	psect	text15,local,class=CODE,merge=1,delta=2
    43                           	psect	text16,local,class=CODE,merge=1,delta=2
    44                           	psect	text17,local,class=CODE,merge=1,delta=2
    45                           	psect	text18,local,class=CODE,merge=1,delta=2
    46                           	psect	text19,local,class=CODE,merge=1,delta=2
    47                           	psect	text20,local,class=CODE,merge=1,delta=2
    48                           	psect	text21,local,class=CODE,merge=1,delta=2
    49                           	psect	text22,local,class=CODE,merge=1,delta=2
    50                           	psect	text23,local,class=CODE,merge=1,delta=2
    51                           	psect	text24,local,class=CODE,merge=1,delta=2
    52                           	psect	text25,local,class=CODE,merge=1,delta=2
    53                           	psect	text26,local,class=CODE,merge=1,delta=2
    54                           	psect	text27,local,class=CODE,merge=1,delta=2
    55                           	psect	text28,local,class=CODE,merge=1,delta=2
    56                           	psect	text29,local,class=CODE,merge=1,delta=2
    57                           	psect	text30,local,class=CODE,merge=1,delta=2
    58                           	psect	text31,local,class=CODE,merge=1,delta=2
    59                           	psect	text32,local,class=CODE,merge=1,delta=2
    60                           	psect	text33,local,class=CODE,merge=1,delta=2
    61                           	psect	text34,local,class=CODE,merge=1,delta=2
    62                           	psect	config,global,abs,ovrld,class=CONFIG,space=4,delta=2,noexec
    63                           	dabs	1,0x7E,2
    64  0000                     
    65                           ; Version 2.32
    66                           ; Generated 02/02/2021 GMT
    67                           ; 
    68                           ; Copyright © 2021, Microchip Technology Inc. and its subsidiaries ("Microchip")
    69                           ; All rights reserved.
    70                           ; 
    71                           ; This software is developed by Microchip Technology Inc. and its subsidiaries ("Microch
      +                          ip").
    72                           ; 
    73                           ; Redistribution and use in source and binary forms, with or without modification, are
    74                           ; permitted provided that the following conditions are met:
    75                           ; 
    76                           ;     1. Redistributions of source code must retain the above copyright notice, this lis
      +                          t of
    77                           ;        conditions and the following disclaimer.
    78                           ; 
    79                           ;     2. Redistributions in binary form must reproduce the above copyright notice, this 
      +                          list
    80                           ;        of conditions and the following disclaimer in the documentation and/or other
    81                           ;        materials provided with the distribution. Publication is not required when
    82                           ;        this file is used in an embedded application.
    83                           ; 
    84                           ;     3. Microchip's name may not be used to endorse or promote products derived from th
      +                          is
    85                           ;        software without specific prior written permission.
    86                           ; 
    87                           ; THIS SOFTWARE IS PROVIDED BY MICROCHIP "AS IS" AND ANY EXPRESS OR IMPLIED WARRANTIES,
    88                           ; INCLUDING, BUT NOT LIMITED TO, THE IMPLIED WARRANTIES OF MERCHANTABILITY AND FITNESS F
      +                          OR
    89                           ; PURPOSE ARE DISCLAIMED.  IN NO EVENT SHALL MICROCHIP BE LIABLE FOR ANY DIRECT, INDIREC
      +                          T,
    90                           ; INCIDENTAL, SPECIAL, EXEMPLARY, OR CONSEQUENTIAL DAMAGES (INCLUDING BUT NOT LIMITED TO
    91                           ; PROCUREMENT OF SUBSTITUTE GOODS OR SERVICES; LOSS OF USE, DATA OR PROFITS; OR BUSINESS
    92                           ; INTERRUPTION) HOWSOEVER CAUSED AND ON ANY THEORY OF LIABILITY, WHETHER IN CONTRACT, ST
      +                          RICT
    93                           ; LIABILITY, OR TORT (INCLUDING NEGLIGENCE OR OTHERWISE) ARISING IN ANY WAY OUT OF THE U
      +                          SE OF
    94                           ; THIS SOFTWARE, EVEN IF ADVISED OF THE POSSIBILITY OF SUCH DAMAGE.
    95                           ; 
    96                           ; 
    97                           ; Code-generator required, PIC16F1615 Definitions
    98                           ; 
    99                           ; SFR Addresses
   100  0000                     	;# 
   101  0001                     	;# 
   102  0002                     	;# 
   103  0003                     	;# 
   104  0004                     	;# 
   105  0005                     	;# 
   106  0006                     	;# 
   107  0007                     	;# 
   108  0008                     	;# 
   109  0009                     	;# 
   110  000A                     	;# 
   111  000B                     	;# 
   112  000C                     	;# 
   113  000E                     	;# 
   114  0010                     	;# 
   115  0011                     	;# 
   116  0012                     	;# 
   117  0013                     	;# 
   118  0014                     	;# 
   119  0015                     	;# 
   120  0016                     	;# 
   121  0016                     	;# 
   122  0017                     	;# 
   123  0018                     	;# 
   124  0019                     	;# 
   125  001A                     	;# 
   126  001A                     	;# 
   127  001B                     	;# 
   128  001B                     	;# 
   129  001C                     	;# 
   130  001D                     	;# 
   131  001E                     	;# 
   132  001F                     	;# 
   133  008C                     	;# 
   134  008E                     	;# 
   135  0090                     	;# 
   136  0091                     	;# 
   137  0092                     	;# 
   138  0093                     	;# 
   139  0094                     	;# 
   140  0095                     	;# 
   141  0096                     	;# 
   142  0098                     	;# 
   143  0099                     	;# 
   144  009A                     	;# 
   145  009B                     	;# 
   146  009B                     	;# 
   147  009C                     	;# 
   148  009D                     	;# 
   149  009E                     	;# 
   150  009F                     	;# 
   151  010C                     	;# 
   152  010E                     	;# 
   153  0111                     	;# 
   154  0112                     	;# 
   155  0113                     	;# 
   156  0114                     	;# 
   157  0115                     	;# 
   158  0116                     	;# 
   159  0117                     	;# 
   160  0118                     	;# 
   161  0119                     	;# 
   162  011C                     	;# 
   163  018C                     	;# 
   164  018E                     	;# 
   165  0191                     	;# 
   166  0191                     	;# 
   167  0192                     	;# 
   168  0193                     	;# 
   169  0193                     	;# 
   170  0194                     	;# 
   171  0195                     	;# 
   172  0196                     	;# 
   173  0197                     	;# 
   174  0199                     	;# 
   175  0199                     	;# 
   176  0199                     	;# 
   177  019A                     	;# 
   178  019A                     	;# 
   179  019A                     	;# 
   180  019B                     	;# 
   181  019B                     	;# 
   182  019B                     	;# 
   183  019B                     	;# 
   184  019B                     	;# 
   185  019C                     	;# 
   186  019C                     	;# 
   187  019C                     	;# 
   188  019D                     	;# 
   189  019D                     	;# 
   190  019D                     	;# 
   191  019E                     	;# 
   192  019E                     	;# 
   193  019E                     	;# 
   194  019F                     	;# 
   195  019F                     	;# 
   196  019F                     	;# 
   197  019F                     	;# 
   198  019F                     	;# 
   199  020C                     	;# 
   200  020E                     	;# 
   201  0211                     	;# 
   202  0211                     	;# 
   203  0212                     	;# 
   204  0212                     	;# 
   205  0213                     	;# 
   206  0213                     	;# 
   207  0214                     	;# 
   208  0214                     	;# 
   209  0215                     	;# 
   210  0215                     	;# 
   211  0215                     	;# 
   212  0215                     	;# 
   213  0216                     	;# 
   214  0216                     	;# 
   215  0217                     	;# 
   216  0217                     	;# 
   217  028C                     	;# 
   218  028E                     	;# 
   219  0291                     	;# 
   220  0291                     	;# 
   221  0292                     	;# 
   222  0293                     	;# 
   223  0294                     	;# 
   224  0298                     	;# 
   225  0298                     	;# 
   226  0299                     	;# 
   227  029A                     	;# 
   228  029B                     	;# 
   229  029E                     	;# 
   230  030C                     	;# 
   231  030E                     	;# 
   232  038C                     	;# 
   233  038E                     	;# 
   234  0391                     	;# 
   235  0392                     	;# 
   236  0393                     	;# 
   237  0397                     	;# 
   238  0398                     	;# 
   239  0399                     	;# 
   240  040E                     	;# 
   241  0413                     	;# 
   242  0413                     	;# 
   243  0414                     	;# 
   244  0414                     	;# 
   245  0415                     	;# 
   246  0416                     	;# 
   247  0417                     	;# 
   248  0418                     	;# 
   249  041A                     	;# 
   250  041A                     	;# 
   251  041B                     	;# 
   252  041B                     	;# 
   253  041C                     	;# 
   254  041D                     	;# 
   255  041E                     	;# 
   256  041F                     	;# 
   257  0493                     	;# 
   258  0494                     	;# 
   259  0495                     	;# 
   260  0496                     	;# 
   261  049A                     	;# 
   262  049B                     	;# 
   263  049C                     	;# 
   264  049D                     	;# 
   265  058C                     	;# 
   266  058C                     	;# 
   267  058D                     	;# 
   268  058E                     	;# 
   269  058E                     	;# 
   270  058F                     	;# 
   271  0590                     	;# 
   272  0590                     	;# 
   273  0591                     	;# 
   274  0592                     	;# 
   275  0592                     	;# 
   276  0593                     	;# 
   277  0594                     	;# 
   278  0594                     	;# 
   279  0595                     	;# 
   280  0596                     	;# 
   281  0596                     	;# 
   282  0597                     	;# 
   283  0598                     	;# 
   284  0599                     	;# 
   285  059A                     	;# 
   286  059B                     	;# 
   287  059B                     	;# 
   288  059C                     	;# 
   289  059D                     	;# 
   290  060C                     	;# 
   291  060C                     	;# 
   292  060D                     	;# 
   293  060E                     	;# 
   294  060F                     	;# 
   295  060F                     	;# 
   296  0610                     	;# 
   297  0611                     	;# 
   298  0612                     	;# 
   299  0613                     	;# 
   300  0614                     	;# 
   301  0617                     	;# 
   302  0617                     	;# 
   303  0618                     	;# 
   304  0619                     	;# 
   305  061A                     	;# 
   306  061A                     	;# 
   307  061B                     	;# 
   308  061C                     	;# 
   309  0691                     	;# 
   310  0692                     	;# 
   311  0693                     	;# 
   312  0694                     	;# 
   313  0695                     	;# 
   314  0696                     	;# 
   315  0697                     	;# 
   316  0699                     	;# 
   317  069A                     	;# 
   318  0711                     	;# 
   319  0712                     	;# 
   320  0713                     	;# 
   321  0714                     	;# 
   322  0715                     	;# 
   323  0718                     	;# 
   324  0718                     	;# 
   325  0719                     	;# 
   326  071A                     	;# 
   327  071A                     	;# 
   328  071B                     	;# 
   329  071C                     	;# 
   330  071D                     	;# 
   331  0791                     	;# 
   332  0791                     	;# 
   333  0792                     	;# 
   334  0793                     	;# 
   335  0793                     	;# 
   336  0794                     	;# 
   337  0795                     	;# 
   338  0795                     	;# 
   339  0796                     	;# 
   340  0797                     	;# 
   341  0797                     	;# 
   342  0798                     	;# 
   343  0799                     	;# 
   344  079A                     	;# 
   345  080C                     	;# 
   346  080C                     	;# 
   347  080D                     	;# 
   348  080E                     	;# 
   349  080E                     	;# 
   350  080F                     	;# 
   351  0810                     	;# 
   352  0810                     	;# 
   353  0811                     	;# 
   354  0812                     	;# 
   355  0812                     	;# 
   356  0813                     	;# 
   357  0814                     	;# 
   358  0815                     	;# 
   359  0816                     	;# 
   360  0817                     	;# 
   361  0818                     	;# 
   362  0819                     	;# 
   363  081A                     	;# 
   364  081A                     	;# 
   365  081B                     	;# 
   366  081C                     	;# 
   367  081C                     	;# 
   368  081D                     	;# 
   369  088C                     	;# 
   370  088D                     	;# 
   371  088E                     	;# 
   372  088F                     	;# 
   373  088F                     	;# 
   374  0890                     	;# 
   375  0891                     	;# 
   376  0892                     	;# 
   377  0893                     	;# 
   378  0893                     	;# 
   379  0894                     	;# 
   380  0895                     	;# 
   381  0896                     	;# 
   382  0897                     	;# 
   383  0897                     	;# 
   384  0898                     	;# 
   385  0899                     	;# 
   386  0D8C                     	;# 
   387  0D8C                     	;# 
   388  0D8D                     	;# 
   389  0D8E                     	;# 
   390  0D8F                     	;# 
   391  0D8F                     	;# 
   392  0D90                     	;# 
   393  0D91                     	;# 
   394  0D92                     	;# 
   395  0D92                     	;# 
   396  0D93                     	;# 
   397  0D94                     	;# 
   398  0D95                     	;# 
   399  0D95                     	;# 
   400  0D96                     	;# 
   401  0D97                     	;# 
   402  0D98                     	;# 
   403  0D99                     	;# 
   404  0D9A                     	;# 
   405  0D9B                     	;# 
   406  0D9C                     	;# 
   407  0D9D                     	;# 
   408  0D9E                     	;# 
   409  0D9E                     	;# 
   410  0D9F                     	;# 
   411  0DA0                     	;# 
   412  0DA1                     	;# 
   413  0DA1                     	;# 
   414  0DA2                     	;# 
   415  0DA3                     	;# 
   416  0DA4                     	;# 
   417  0DA4                     	;# 
   418  0DA5                     	;# 
   419  0DA6                     	;# 
   420  0DA7                     	;# 
   421  0DA7                     	;# 
   422  0DA8                     	;# 
   423  0DA9                     	;# 
   424  0DAA                     	;# 
   425  0DAB                     	;# 
   426  0DAC                     	;# 
   427  0DAD                     	;# 
   428  0DAE                     	;# 
   429  0DAF                     	;# 
   430  0E0F                     	;# 
   431  0E10                     	;# 
   432  0E11                     	;# 
   433  0E12                     	;# 
   434  0E13                     	;# 
   435  0E14                     	;# 
   436  0E15                     	;# 
   437  0E16                     	;# 
   438  0E17                     	;# 
   439  0E18                     	;# 
   440  0E19                     	;# 
   441  0E1A                     	;# 
   442  0E1B                     	;# 
   443  0E1C                     	;# 
   444  0E1D                     	;# 
   445  0E1E                     	;# 
   446  0E1F                     	;# 
   447  0E20                     	;# 
   448  0E21                     	;# 
   449  0E22                     	;# 
   450  0E23                     	;# 
   451  0E24                     	;# 
   452  0E25                     	;# 
   453  0E26                     	;# 
   454  0E27                     	;# 
   455  0E28                     	;# 
   456  0E29                     	;# 
   457  0E2A                     	;# 
   458  0E2B                     	;# 
   459  0E2C                     	;# 
   460  0E2D                     	;# 
   461  0E2E                     	;# 
   462  0E90                     	;# 
   463  0E91                     	;# 
   464  0E92                     	;# 
   465  0E94                     	;# 
   466  0E95                     	;# 
   467  0EA0                     	;# 
   468  0EA1                     	;# 
   469  0EA2                     	;# 
   470  0EA3                     	;# 
   471  0EA4                     	;# 
   472  0EA5                     	;# 
   473  0F0F                     	;# 
   474  0F10                     	;# 
   475  0F11                     	;# 
   476  0F12                     	;# 
   477  0F13                     	;# 
   478  0F14                     	;# 
   479  0F15                     	;# 
   480  0F16                     	;# 
   481  0F17                     	;# 
   482  0F18                     	;# 
   483  0F19                     	;# 
   484  0F1A                     	;# 
   485  0F1B                     	;# 
   486  0F1C                     	;# 
   487  0F1D                     	;# 
   488  0F1E                     	;# 
   489  0F1F                     	;# 
   490  0F20                     	;# 
   491  0F21                     	;# 
   492  0F22                     	;# 
   493  0F23                     	;# 
   494  0F24                     	;# 
   495  0F25                     	;# 
   496  0F26                     	;# 
   497  0F27                     	;# 
   498  0F28                     	;# 
   499  0F29                     	;# 
   500  0F2A                     	;# 
   501  0F2B                     	;# 
   502  0F2C                     	;# 
   503  0F2D                     	;# 
   504  0F2E                     	;# 
   505  0F2F                     	;# 
   506  0F30                     	;# 
   507  0F31                     	;# 
   508  0F32                     	;# 
   509  0F33                     	;# 
   510  0F34                     	;# 
   511  0F35                     	;# 
   512  0F36                     	;# 
   513  0F37                     	;# 
   514  0FE4                     	;# 
   515  0FE5                     	;# 
   516  0FE6                     	;# 
   517  0FE7                     	;# 
   518  0FE8                     	;# 
   519  0FE9                     	;# 
   520  0FEA                     	;# 
   521  0FEB                     	;# 
   522  0FED                     	;# 
   523  0FEE                     	;# 
   524  0FEF                     	;# 
   525  0000                     	;# 
   526  0001                     	;# 
   527  0002                     	;# 
   528  0003                     	;# 
   529  0004                     	;# 
   530  0005                     	;# 
   531  0006                     	;# 
   532  0007                     	;# 
   533  0008                     	;# 
   534  0009                     	;# 
   535  000A                     	;# 
   536  000B                     	;# 
   537  000C                     	;# 
   538  000E                     	;# 
   539  0010                     	;# 
   540  0011                     	;# 
   541  0012                     	;# 
   542  0013                     	;# 
   543  0014                     	;# 
   544  0015                     	;# 
   545  0016                     	;# 
   546  0016                     	;# 
   547  0017                     	;# 
   548  0018                     	;# 
   549  0019                     	;# 
   550  001A                     	;# 
   551  001A                     	;# 
   552  001B                     	;# 
   553  001B                     	;# 
   554  001C                     	;# 
   555  001D                     	;# 
   556  001E                     	;# 
   557  001F                     	;# 
   558  008C                     	;# 
   559  008E                     	;# 
   560  0090                     	;# 
   561  0091                     	;# 
   562  0092                     	;# 
   563  0093                     	;# 
   564  0094                     	;# 
   565  0095                     	;# 
   566  0096                     	;# 
   567  0098                     	;# 
   568  0099                     	;# 
   569  009A                     	;# 
   570  009B                     	;# 
   571  009B                     	;# 
   572  009C                     	;# 
   573  009D                     	;# 
   574  009E                     	;# 
   575  009F                     	;# 
   576  010C                     	;# 
   577  010E                     	;# 
   578  0111                     	;# 
   579  0112                     	;# 
   580  0113                     	;# 
   581  0114                     	;# 
   582  0115                     	;# 
   583  0116                     	;# 
   584  0117                     	;# 
   585  0118                     	;# 
   586  0119                     	;# 
   587  011C                     	;# 
   588  018C                     	;# 
   589  018E                     	;# 
   590  0191                     	;# 
   591  0191                     	;# 
   592  0192                     	;# 
   593  0193                     	;# 
   594  0193                     	;# 
   595  0194                     	;# 
   596  0195                     	;# 
   597  0196                     	;# 
   598  0197                     	;# 
   599  0199                     	;# 
   600  0199                     	;# 
   601  0199                     	;# 
   602  019A                     	;# 
   603  019A                     	;# 
   604  019A                     	;# 
   605  019B                     	;# 
   606  019B                     	;# 
   607  019B                     	;# 
   608  019B                     	;# 
   609  019B                     	;# 
   610  019C                     	;# 
   611  019C                     	;# 
   612  019C                     	;# 
   613  019D                     	;# 
   614  019D                     	;# 
   615  019D                     	;# 
   616  019E                     	;# 
   617  019E                     	;# 
   618  019E                     	;# 
   619  019F                     	;# 
   620  019F                     	;# 
   621  019F                     	;# 
   622  019F                     	;# 
   623  019F                     	;# 
   624  020C                     	;# 
   625  020E                     	;# 
   626  0211                     	;# 
   627  0211                     	;# 
   628  0212                     	;# 
   629  0212                     	;# 
   630  0213                     	;# 
   631  0213                     	;# 
   632  0214                     	;# 
   633  0214                     	;# 
   634  0215                     	;# 
   635  0215                     	;# 
   636  0215                     	;# 
   637  0215                     	;# 
   638  0216                     	;# 
   639  0216                     	;# 
   640  0217                     	;# 
   641  0217                     	;# 
   642  028C                     	;# 
   643  028E                     	;# 
   644  0291                     	;# 
   645  0291                     	;# 
   646  0292                     	;# 
   647  0293                     	;# 
   648  0294                     	;# 
   649  0298                     	;# 
   650  0298                     	;# 
   651  0299                     	;# 
   652  029A                     	;# 
   653  029B                     	;# 
   654  029E                     	;# 
   655  030C                     	;# 
   656  030E                     	;# 
   657  038C                     	;# 
   658  038E                     	;# 
   659  0391                     	;# 
   660  0392                     	;# 
   661  0393                     	;# 
   662  0397                     	;# 
   663  0398                     	;# 
   664  0399                     	;# 
   665  040E                     	;# 
   666  0413                     	;# 
   667  0413                     	;# 
   668  0414                     	;# 
   669  0414                     	;# 
   670  0415                     	;# 
   671  0416                     	;# 
   672  0417                     	;# 
   673  0418                     	;# 
   674  041A                     	;# 
   675  041A                     	;# 
   676  041B                     	;# 
   677  041B                     	;# 
   678  041C                     	;# 
   679  041D                     	;# 
   680  041E                     	;# 
   681  041F                     	;# 
   682  0493                     	;# 
   683  0494                     	;# 
   684  0495                     	;# 
   685  0496                     	;# 
   686  049A                     	;# 
   687  049B                     	;# 
   688  049C                     	;# 
   689  049D                     	;# 
   690  058C                     	;# 
   691  058C                     	;# 
   692  058D                     	;# 
   693  058E                     	;# 
   694  058E                     	;# 
   695  058F                     	;# 
   696  0590                     	;# 
   697  0590                     	;# 
   698  0591                     	;# 
   699  0592                     	;# 
   700  0592                     	;# 
   701  0593                     	;# 
   702  0594                     	;# 
   703  0594                     	;# 
   704  0595                     	;# 
   705  0596                     	;# 
   706  0596                     	;# 
   707  0597                     	;# 
   708  0598                     	;# 
   709  0599                     	;# 
   710  059A                     	;# 
   711  059B                     	;# 
   712  059B                     	;# 
   713  059C                     	;# 
   714  059D                     	;# 
   715  060C                     	;# 
   716  060C                     	;# 
   717  060D                     	;# 
   718  060E                     	;# 
   719  060F                     	;# 
   720  060F                     	;# 
   721  0610                     	;# 
   722  0611                     	;# 
   723  0612                     	;# 
   724  0613                     	;# 
   725  0614                     	;# 
   726  0617                     	;# 
   727  0617                     	;# 
   728  0618                     	;# 
   729  0619                     	;# 
   730  061A                     	;# 
   731  061A                     	;# 
   732  061B                     	;# 
   733  061C                     	;# 
   734  0691                     	;# 
   735  0692                     	;# 
   736  0693                     	;# 
   737  0694                     	;# 
   738  0695                     	;# 
   739  0696                     	;# 
   740  0697                     	;# 
   741  0699                     	;# 
   742  069A                     	;# 
   743  0711                     	;# 
   744  0712                     	;# 
   745  0713                     	;# 
   746  0714                     	;# 
   747  0715                     	;# 
   748  0718                     	;# 
   749  0718                     	;# 
   750  0719                     	;# 
   751  071A                     	;# 
   752  071A                     	;# 
   753  071B                     	;# 
   754  071C                     	;# 
   755  071D                     	;# 
   756  0791                     	;# 
   757  0791                     	;# 
   758  0792                     	;# 
   759  0793                     	;# 
   760  0793                     	;# 
   761  0794                     	;# 
   762  0795                     	;# 
   763  0795                     	;# 
   764  0796                     	;# 
   765  0797                     	;# 
   766  0797                     	;# 
   767  0798                     	;# 
   768  0799                     	;# 
   769  079A                     	;# 
   770  080C                     	;# 
   771  080C                     	;# 
   772  080D                     	;# 
   773  080E                     	;# 
   774  080E                     	;# 
   775  080F                     	;# 
   776  0810                     	;# 
   777  0810                     	;# 
   778  0811                     	;# 
   779  0812                     	;# 
   780  0812                     	;# 
   781  0813                     	;# 
   782  0814                     	;# 
   783  0815                     	;# 
   784  0816                     	;# 
   785  0817                     	;# 
   786  0818                     	;# 
   787  0819                     	;# 
   788  081A                     	;# 
   789  081A                     	;# 
   790  081B                     	;# 
   791  081C                     	;# 
   792  081C                     	;# 
   793  081D                     	;# 
   794  088C                     	;# 
   795  088D                     	;# 
   796  088E                     	;# 
   797  088F                     	;# 
   798  088F                     	;# 
   799  0890                     	;# 
   800  0891                     	;# 
   801  0892                     	;# 
   802  0893                     	;# 
   803  0893                     	;# 
   804  0894                     	;# 
   805  0895                     	;# 
   806  0896                     	;# 
   807  0897                     	;# 
   808  0897                     	;# 
   809  0898                     	;# 
   810  0899                     	;# 
   811  0D8C                     	;# 
   812  0D8C                     	;# 
   813  0D8D                     	;# 
   814  0D8E                     	;# 
   815  0D8F                     	;# 
   816  0D8F                     	;# 
   817  0D90                     	;# 
   818  0D91                     	;# 
   819  0D92                     	;# 
   820  0D92                     	;# 
   821  0D93                     	;# 
   822  0D94                     	;# 
   823  0D95                     	;# 
   824  0D95                     	;# 
   825  0D96                     	;# 
   826  0D97                     	;# 
   827  0D98                     	;# 
   828  0D99                     	;# 
   829  0D9A                     	;# 
   830  0D9B                     	;# 
   831  0D9C                     	;# 
   832  0D9D                     	;# 
   833  0D9E                     	;# 
   834  0D9E                     	;# 
   835  0D9F                     	;# 
   836  0DA0                     	;# 
   837  0DA1                     	;# 
   838  0DA1                     	;# 
   839  0DA2                     	;# 
   840  0DA3                     	;# 
   841  0DA4                     	;# 
   842  0DA4                     	;# 
   843  0DA5                     	;# 
   844  0DA6                     	;# 
   845  0DA7                     	;# 
   846  0DA7                     	;# 
   847  0DA8                     	;# 
   848  0DA9                     	;# 
   849  0DAA                     	;# 
   850  0DAB                     	;# 
   851  0DAC                     	;# 
   852  0DAD                     	;# 
   853  0DAE                     	;# 
   854  0DAF                     	;# 
   855  0E0F                     	;# 
   856  0E10                     	;# 
   857  0E11                     	;# 
   858  0E12                     	;# 
   859  0E13                     	;# 
   860  0E14                     	;# 
   861  0E15                     	;# 
   862  0E16                     	;# 
   863  0E17                     	;# 
   864  0E18                     	;# 
   865  0E19                     	;# 
   866  0E1A                     	;# 
   867  0E1B                     	;# 
   868  0E1C                     	;# 
   869  0E1D                     	;# 
   870  0E1E                     	;# 
   871  0E1F                     	;# 
   872  0E20                     	;# 
   873  0E21                     	;# 
   874  0E22                     	;# 
   875  0E23                     	;# 
   876  0E24                     	;# 
   877  0E25                     	;# 
   878  0E26                     	;# 
   879  0E27                     	;# 
   880  0E28                     	;# 
   881  0E29                     	;# 
   882  0E2A                     	;# 
   883  0E2B                     	;# 
   884  0E2C                     	;# 
   885  0E2D                     	;# 
   886  0E2E                     	;# 
   887  0E90                     	;# 
   888  0E91                     	;# 
   889  0E92                     	;# 
   890  0E94                     	;# 
   891  0E95                     	;# 
   892  0EA0                     	;# 
   893  0EA1                     	;# 
   894  0EA2                     	;# 
   895  0EA3                     	;# 
   896  0EA4                     	;# 
   897  0EA5                     	;# 
   898  0F0F                     	;# 
   899  0F10                     	;# 
   900  0F11                     	;# 
   901  0F12                     	;# 
   902  0F13                     	;# 
   903  0F14                     	;# 
   904  0F15                     	;# 
   905  0F16                     	;# 
   906  0F17                     	;# 
   907  0F18                     	;# 
   908  0F19                     	;# 
   909  0F1A                     	;# 
   910  0F1B                     	;# 
   911  0F1C                     	;# 
   912  0F1D                     	;# 
   913  0F1E                     	;# 
   914  0F1F                     	;# 
   915  0F20                     	;# 
   916  0F21                     	;# 
   917  0F22                     	;# 
   918  0F23                     	;# 
   919  0F24                     	;# 
   920  0F25                     	;# 
   921  0F26                     	;# 
   922  0F27                     	;# 
   923  0F28                     	;# 
   924  0F29                     	;# 
   925  0F2A                     	;# 
   926  0F2B                     	;# 
   927  0F2C                     	;# 
   928  0F2D                     	;# 
   929  0F2E                     	;# 
   930  0F2F                     	;# 
   931  0F30                     	;# 
   932  0F31                     	;# 
   933  0F32                     	;# 
   934  0F33                     	;# 
   935  0F34                     	;# 
   936  0F35                     	;# 
   937  0F36                     	;# 
   938  0F37                     	;# 
   939  0FE4                     	;# 
   940  0FE5                     	;# 
   941  0FE6                     	;# 
   942  0FE7                     	;# 
   943  0FE8                     	;# 
   944  0FE9                     	;# 
   945  0FEA                     	;# 
   946  0FEB                     	;# 
   947  0FED                     	;# 
   948  0FEE                     	;# 
   949  0FEF                     	;# 
   950  0000                     	;# 
   951  0001                     	;# 
   952  0002                     	;# 
   953  0003                     	;# 
   954  0004                     	;# 
   955  0005                     	;# 
   956  0006                     	;# 
   957  0007                     	;# 
   958  0008                     	;# 
   959  0009                     	;# 
   960  000A                     	;# 
   961  000B                     	;# 
   962  000C                     	;# 
   963  000E                     	;# 
   964  0010                     	;# 
   965  0011                     	;# 
   966  0012                     	;# 
   967  0013                     	;# 
   968  0014                     	;# 
   969  0015                     	;# 
   970  0016                     	;# 
   971  0016                     	;# 
   972  0017                     	;# 
   973  0018                     	;# 
   974  0019                     	;# 
   975  001A                     	;# 
   976  001A                     	;# 
   977  001B                     	;# 
   978  001B                     	;# 
   979  001C                     	;# 
   980  001D                     	;# 
   981  001E                     	;# 
   982  001F                     	;# 
   983  008C                     	;# 
   984  008E                     	;# 
   985  0090                     	;# 
   986  0091                     	;# 
   987  0092                     	;# 
   988  0093                     	;# 
   989  0094                     	;# 
   990  0095                     	;# 
   991  0096                     	;# 
   992  0098                     	;# 
   993  0099                     	;# 
   994  009A                     	;# 
   995  009B                     	;# 
   996  009B                     	;# 
   997  009C                     	;# 
   998  009D                     	;# 
   999  009E                     	;# 
  1000  009F                     	;# 
  1001  010C                     	;# 
  1002  010E                     	;# 
  1003  0111                     	;# 
  1004  0112                     	;# 
  1005  0113                     	;# 
  1006  0114                     	;# 
  1007  0115                     	;# 
  1008  0116                     	;# 
  1009  0117                     	;# 
  1010  0118                     	;# 
  1011  0119                     	;# 
  1012  011C                     	;# 
  1013  018C                     	;# 
  1014  018E                     	;# 
  1015  0191                     	;# 
  1016  0191                     	;# 
  1017  0192                     	;# 
  1018  0193                     	;# 
  1019  0193                     	;# 
  1020  0194                     	;# 
  1021  0195                     	;# 
  1022  0196                     	;# 
  1023  0197                     	;# 
  1024  0199                     	;# 
  1025  0199                     	;# 
  1026  0199                     	;# 
  1027  019A                     	;# 
  1028  019A                     	;# 
  1029  019A                     	;# 
  1030  019B                     	;# 
  1031  019B                     	;# 
  1032  019B                     	;# 
  1033  019B                     	;# 
  1034  019B                     	;# 
  1035  019C                     	;# 
  1036  019C                     	;# 
  1037  019C                     	;# 
  1038  019D                     	;# 
  1039  019D                     	;# 
  1040  019D                     	;# 
  1041  019E                     	;# 
  1042  019E                     	;# 
  1043  019E                     	;# 
  1044  019F                     	;# 
  1045  019F                     	;# 
  1046  019F                     	;# 
  1047  019F                     	;# 
  1048  019F                     	;# 
  1049  020C                     	;# 
  1050  020E                     	;# 
  1051  0211                     	;# 
  1052  0211                     	;# 
  1053  0212                     	;# 
  1054  0212                     	;# 
  1055  0213                     	;# 
  1056  0213                     	;# 
  1057  0214                     	;# 
  1058  0214                     	;# 
  1059  0215                     	;# 
  1060  0215                     	;# 
  1061  0215                     	;# 
  1062  0215                     	;# 
  1063  0216                     	;# 
  1064  0216                     	;# 
  1065  0217                     	;# 
  1066  0217                     	;# 
  1067  028C                     	;# 
  1068  028E                     	;# 
  1069  0291                     	;# 
  1070  0291                     	;# 
  1071  0292                     	;# 
  1072  0293                     	;# 
  1073  0294                     	;# 
  1074  0298                     	;# 
  1075  0298                     	;# 
  1076  0299                     	;# 
  1077  029A                     	;# 
  1078  029B                     	;# 
  1079  029E                     	;# 
  1080  030C                     	;# 
  1081  030E                     	;# 
  1082  038C                     	;# 
  1083  038E                     	;# 
  1084  0391                     	;# 
  1085  0392                     	;# 
  1086  0393                     	;# 
  1087  0397                     	;# 
  1088  0398                     	;# 
  1089  0399                     	;# 
  1090  040E                     	;# 
  1091  0413                     	;# 
  1092  0413                     	;# 
  1093  0414                     	;# 
  1094  0414                     	;# 
  1095  0415                     	;# 
  1096  0416                     	;# 
  1097  0417                     	;# 
  1098  0418                     	;# 
  1099  041A                     	;# 
  1100  041A                     	;# 
  1101  041B                     	;# 
  1102  041B                     	;# 
  1103  041C                     	;# 
  1104  041D                     	;# 
  1105  041E                     	;# 
  1106  041F                     	;# 
  1107  0493                     	;# 
  1108  0494                     	;# 
  1109  0495                     	;# 
  1110  0496                     	;# 
  1111  049A                     	;# 
  1112  049B                     	;# 
  1113  049C                     	;# 
  1114  049D                     	;# 
  1115  058C                     	;# 
  1116  058C                     	;# 
  1117  058D                     	;# 
  1118  058E                     	;# 
  1119  058E                     	;# 
  1120  058F                     	;# 
  1121  0590                     	;# 
  1122  0590                     	;# 
  1123  0591                     	;# 
  1124  0592                     	;# 
  1125  0592                     	;# 
  1126  0593                     	;# 
  1127  0594                     	;# 
  1128  0594                     	;# 
  1129  0595                     	;# 
  1130  0596                     	;# 
  1131  0596                     	;# 
  1132  0597                     	;# 
  1133  0598                     	;# 
  1134  0599                     	;# 
  1135  059A                     	;# 
  1136  059B                     	;# 
  1137  059B                     	;# 
  1138  059C                     	;# 
  1139  059D                     	;# 
  1140  060C                     	;# 
  1141  060C                     	;# 
  1142  060D                     	;# 
  1143  060E                     	;# 
  1144  060F                     	;# 
  1145  060F                     	;# 
  1146  0610                     	;# 
  1147  0611                     	;# 
  1148  0612                     	;# 
  1149  0613                     	;# 
  1150  0614                     	;# 
  1151  0617                     	;# 
  1152  0617                     	;# 
  1153  0618                     	;# 
  1154  0619                     	;# 
  1155  061A                     	;# 
  1156  061A                     	;# 
  1157  061B                     	;# 
  1158  061C                     	;# 
  1159  0691                     	;# 
  1160  0692                     	;# 
  1161  0693                     	;# 
  1162  0694                     	;# 
  1163  0695                     	;# 
  1164  0696                     	;# 
  1165  0697                     	;# 
  1166  0699                     	;# 
  1167  069A                     	;# 
  1168  0711                     	;# 
  1169  0712                     	;# 
  1170  0713                     	;# 
  1171  0714                     	;# 
  1172  0715                     	;# 
  1173  0718                     	;# 
  1174  0718                     	;# 
  1175  0719                     	;# 
  1176  071A                     	;# 
  1177  071A                     	;# 
  1178  071B                     	;# 
  1179  071C                     	;# 
  1180  071D                     	;# 
  1181  0791                     	;# 
  1182  0791                     	;# 
  1183  0792                     	;# 
  1184  0793                     	;# 
  1185  0793                     	;# 
  1186  0794                     	;# 
  1187  0795                     	;# 
  1188  0795                     	;# 
  1189  0796                     	;# 
  1190  0797                     	;# 
  1191  0797                     	;# 
  1192  0798                     	;# 
  1193  0799                     	;# 
  1194  079A                     	;# 
  1195  080C                     	;# 
  1196  080C                     	;# 
  1197  080D                     	;# 
  1198  080E                     	;# 
  1199  080E                     	;# 
  1200  080F                     	;# 
  1201  0810                     	;# 
  1202  0810                     	;# 
  1203  0811                     	;# 
  1204  0812                     	;# 
  1205  0812                     	;# 
  1206  0813                     	;# 
  1207  0814                     	;# 
  1208  0815                     	;# 
  1209  0816                     	;# 
  1210  0817                     	;# 
  1211  0818                     	;# 
  1212  0819                     	;# 
  1213  081A                     	;# 
  1214  081A                     	;# 
  1215  081B                     	;# 
  1216  081C                     	;# 
  1217  081C                     	;# 
  1218  081D                     	;# 
  1219  088C                     	;# 
  1220  088D                     	;# 
  1221  088E                     	;# 
  1222  088F                     	;# 
  1223  088F                     	;# 
  1224  0890                     	;# 
  1225  0891                     	;# 
  1226  0892                     	;# 
  1227  0893                     	;# 
  1228  0893                     	;# 
  1229  0894                     	;# 
  1230  0895                     	;# 
  1231  0896                     	;# 
  1232  0897                     	;# 
  1233  0897                     	;# 
  1234  0898                     	;# 
  1235  0899                     	;# 
  1236  0D8C                     	;# 
  1237  0D8C                     	;# 
  1238  0D8D                     	;# 
  1239  0D8E                     	;# 
  1240  0D8F                     	;# 
  1241  0D8F                     	;# 
  1242  0D90                     	;# 
  1243  0D91                     	;# 
  1244  0D92                     	;# 
  1245  0D92                     	;# 
  1246  0D93                     	;# 
  1247  0D94                     	;# 
  1248  0D95                     	;# 
  1249  0D95                     	;# 
  1250  0D96                     	;# 
  1251  0D97                     	;# 
  1252  0D98                     	;# 
  1253  0D99                     	;# 
  1254  0D9A                     	;# 
  1255  0D9B                     	;# 
  1256  0D9C                     	;# 
  1257  0D9D                     	;# 
  1258  0D9E                     	;# 
  1259  0D9E                     	;# 
  1260  0D9F                     	;# 
  1261  0DA0                     	;# 
  1262  0DA1                     	;# 
  1263  0DA1                     	;# 
  1264  0DA2                     	;# 
  1265  0DA3                     	;# 
  1266  0DA4                     	;# 
  1267  0DA4                     	;# 
  1268  0DA5                     	;# 
  1269  0DA6                     	;# 
  1270  0DA7                     	;# 
  1271  0DA7                     	;# 
  1272  0DA8                     	;# 
  1273  0DA9                     	;# 
  1274  0DAA                     	;# 
  1275  0DAB                     	;# 
  1276  0DAC                     	;# 
  1277  0DAD                     	;# 
  1278  0DAE                     	;# 
  1279  0DAF                     	;# 
  1280  0E0F                     	;# 
  1281  0E10                     	;# 
  1282  0E11                     	;# 
  1283  0E12                     	;# 
  1284  0E13                     	;# 
  1285  0E14                     	;# 
  1286  0E15                     	;# 
  1287  0E16                     	;# 
  1288  0E17                     	;# 
  1289  0E18                     	;# 
  1290  0E19                     	;# 
  1291  0E1A                     	;# 
  1292  0E1B                     	;# 
  1293  0E1C                     	;# 
  1294  0E1D                     	;# 
  1295  0E1E                     	;# 
  1296  0E1F                     	;# 
  1297  0E20                     	;# 
  1298  0E21                     	;# 
  1299  0E22                     	;# 
  1300  0E23                     	;# 
  1301  0E24                     	;# 
  1302  0E25                     	;# 
  1303  0E26                     	;# 
  1304  0E27                     	;# 
  1305  0E28                     	;# 
  1306  0E29                     	;# 
  1307  0E2A                     	;# 
  1308  0E2B                     	;# 
  1309  0E2C                     	;# 
  1310  0E2D                     	;# 
  1311  0E2E                     	;# 
  1312  0E90                     	;# 
  1313  0E91                     	;# 
  1314  0E92                     	;# 
  1315  0E94                     	;# 
  1316  0E95                     	;# 
  1317  0EA0                     	;# 
  1318  0EA1                     	;# 
  1319  0EA2                     	;# 
  1320  0EA3                     	;# 
  1321  0EA4                     	;# 
  1322  0EA5                     	;# 
  1323  0F0F                     	;# 
  1324  0F10                     	;# 
  1325  0F11                     	;# 
  1326  0F12                     	;# 
  1327  0F13                     	;# 
  1328  0F14                     	;# 
  1329  0F15                     	;# 
  1330  0F16                     	;# 
  1331  0F17                     	;# 
  1332  0F18                     	;# 
  1333  0F19                     	;# 
  1334  0F1A                     	;# 
  1335  0F1B                     	;# 
  1336  0F1C                     	;# 
  1337  0F1D                     	;# 
  1338  0F1E                     	;# 
  1339  0F1F                     	;# 
  1340  0F20                     	;# 
  1341  0F21                     	;# 
  1342  0F22                     	;# 
  1343  0F23                     	;# 
  1344  0F24                     	;# 
  1345  0F25                     	;# 
  1346  0F26                     	;# 
  1347  0F27                     	;# 
  1348  0F28                     	;# 
  1349  0F29                     	;# 
  1350  0F2A                     	;# 
  1351  0F2B                     	;# 
  1352  0F2C                     	;# 
  1353  0F2D                     	;# 
  1354  0F2E                     	;# 
  1355  0F2F                     	;# 
  1356  0F30                     	;# 
  1357  0F31                     	;# 
  1358  0F32                     	;# 
  1359  0F33                     	;# 
  1360  0F34                     	;# 
  1361  0F35                     	;# 
  1362  0F36                     	;# 
  1363  0F37                     	;# 
  1364  0FE4                     	;# 
  1365  0FE5                     	;# 
  1366  0FE6                     	;# 
  1367  0FE7                     	;# 
  1368  0FE8                     	;# 
  1369  0FE9                     	;# 
  1370  0FEA                     	;# 
  1371  0FEB                     	;# 
  1372  0FED                     	;# 
  1373  0FEE                     	;# 
  1374  0FEF                     	;# 
  1375                           
  1376                           	psect	idataBANK2
  1377  16D8                     __pidataBANK2:
  1378                           
  1379                           ;initializer for _SYNC_WORDS
  1380  16D8  3467               	retlw	103
  1381  16D9  3467               	retlw	103
  1382  16DA  3467               	retlw	103
  1383  16DB  3467               	retlw	103
  1384  16DC  3467               	retlw	103
  1385  16DD  3467               	retlw	103
  1386  16DE  3467               	retlw	103
  1387  16DF  3467               	retlw	103
  1388                           
  1389                           ;initializer for getPowerSettings@F9514
  1390  16E0  3411               	retlw	17
  1391  16E1  3400               	retlw	0
  1392                           
  1393                           ;initializer for restartRx@F9510
  1394  16E2  34BD               	retlw	189
  1395  16E3  3406               	retlw	6
  1396                           
  1397                           ;initializer for startRSSISampling@F9506
  1398  16E4  34A3               	retlw	163
  1399  16E5  3401               	retlw	1
  1400                           
  1401                           ;initializer for checkRSSISampling@F9502
  1402  16E6  3423               	retlw	35
  1403  16E7  3400               	retlw	0
  1404                           
  1405                           ;initializer for getModeFlags@F9498
  1406  16E8  3427               	retlw	39
  1407  16E9  3400               	retlw	0
  1408                           
  1409                           ;initializer for getOperatingMode@F9489
  1410  16EA  3401               	retlw	1
  1411  16EB  3400               	retlw	0
  1412                           
  1413                           ;initializer for getRSSIThreshold@F9485
  1414  16EC  3429               	retlw	41
  1415  16ED  3400               	retlw	0
  1416                           
  1417                           ;initializer for getFifoFlags@F9481
  1418  16EE  3428               	retlw	40
  1419  16EF  3400               	retlw	0
  1420                           
  1421                           ;initializer for getRSSI@F9477
  1422  16F0  3424               	retlw	36
  1423  16F1  3400               	retlw	0
  1424                           
  1425                           ;initializer for setPreambleLength@F9462
  1426  16F2  34AD               	retlw	173
  1427  16F3  3403               	retlw	3
  1428                           
  1429                           ;initializer for checkForPayload@F9455
  1430  16F4  3428               	retlw	40
  1431  16F5  3400               	retlw	0
  1432                           
  1433                           ;initializer for setPacketFormat@F9440
  1434  16F6  34B7               	retlw	183
  1435  16F7  3410               	retlw	16
  1436                           
  1437                           	psect	idataBANK4
  1438  0800                     __pidataBANK4:
  1439                           
  1440                           ;initializer for _recommended_params
  1441  0800  3498               	retlw	152
  1442  0801  3408               	retlw	8
  1443  0802  3499               	retlw	153
  1444  0803  3455               	retlw	85
  1445  0804  349A               	retlw	154
  1446  0805  348B               	retlw	139
  1447  0806  34EF               	retlw	239
  1448  0807  3400               	retlw	0
  1449  0808  3400               	retlw	0
  1450  0809  3400               	retlw	0
  1451                           
  1452                           	psect	idataBANK5
  1453  17B5                     __pidataBANK5:
  1454                           
  1455                           ;initializer for main@F9844
  1456  17B5  3400               	retlw	0
  1457  17B6  3400               	retlw	0
  1458  17B7  3400               	retlw	0
  1459  17B8  3400               	retlw	0
  1460  17B9  3400               	retlw	0
  1461  17BA  3400               	retlw	0
  1462  17BB  3400               	retlw	0
  1463  17BC  3400               	retlw	0
  1464  17BD  3400               	retlw	0
  1465  17BE  3400               	retlw	0
  1466  17BF  3400               	retlw	0
  1467  17C0  3400               	retlw	0
  1468  17C1  3400               	retlw	0
  1469  17C2  3400               	retlw	0
  1470  17C3  3400               	retlw	0
  1471  17C4  3400               	retlw	0
  1472  17C5  3400               	retlw	0
  1473  17C6  3400               	retlw	0
  1474  17C7  3400               	retlw	0
  1475  17C8  3400               	retlw	0
  1476  17C9  3400               	retlw	0
  1477  17CA  3400               	retlw	0
  1478  17CB  3400               	retlw	0
  1479  17CC  3400               	retlw	0
  1480  17CD  3400               	retlw	0
  1481  17CE  3400               	retlw	0
  1482  17CF  3400               	retlw	0
  1483  17D0  3400               	retlw	0
  1484  17D1  3400               	retlw	0
  1485  17D2  3400               	retlw	0
  1486  17D3  3400               	retlw	0
  1487  17D4  3400               	retlw	0
  1488  17D5  3400               	retlw	0
  1489  17D6  3400               	retlw	0
  1490  17D7  3400               	retlw	0
  1491  17D8  3400               	retlw	0
  1492  17D9  3400               	retlw	0
  1493  17DA  3400               	retlw	0
  1494  17DB  3400               	retlw	0
  1495  17DC  3400               	retlw	0
  1496  17DD  340C               	retlw	12
  1497  17DE  3400               	retlw	0
  1498  17DF  3402               	retlw	2
  1499  17E0  3404               	retlw	4
  1500  17E1  3400               	retlw	0
  1501  17E2  3400               	retlw	0
  1502  17E3  3400               	retlw	0
  1503  17E4  3400               	retlw	0
  1504  17E5  3400               	retlw	0
  1505  17E6  3400               	retlw	0
  1506  17E7  3400               	retlw	0
  1507  17E8  3400               	retlw	0
  1508  17E9  3400               	retlw	0
  1509  17EA  3400               	retlw	0
  1510  17EB  3400               	retlw	0
  1511  17EC  3400               	retlw	0
  1512  17ED  3400               	retlw	0
  1513  17EE  3400               	retlw	0
  1514  17EF  3400               	retlw	0
  1515  17F0  3400               	retlw	0
  1516  17F1  3400               	retlw	0
  1517  17F2  3400               	retlw	0
  1518  17F3  3400               	retlw	0
  1519  17F4  3400               	retlw	0
  1520  17F5  3430               	retlw	48
  1521  17F6  34E4               	retlw	228
  1522  17F7  3467               	retlw	103
  1523  17F8  3467               	retlw	103
  1524  17F9  3467               	retlw	103
  1525  17FA  3467               	retlw	103
  1526  17FB  3467               	retlw	103
  1527  17FC  3467               	retlw	103
  1528  17FD  3467               	retlw	103
  1529  17FE  3467               	retlw	103
  1530  17FF  3400               	retlw	0
  1531                           
  1532                           	psect	stringtext1
  1533  1800                     __pstringtext1:
  1534  1800                     _Lg4:
  1535  1800  3426               	retlw	38
  1536  1801  349E               	retlw	158
  1537  1802  3478               	retlw	120
  1538  1803  343E               	retlw	62
  1539  1804                     __end_of_Lg4:
  1540                           
  1541                           	psect	stringtext2
  1542  1804                     __pstringtext2:
  1543  1804                     _Lg3:
  1544  1804  34EE               	retlw	238
  1545  1805  34E9               	retlw	233
  1546  1806  3491               	retlw	145
  1547  1807  343E               	retlw	62
  1548  1808                     __end_of_Lg3:
  1549                           
  1550                           	psect	stringtext3
  1551  1808                     __pstringtext3:
  1552  1808                     _Lg2:
  1553  1808  3413               	retlw	19
  1554  1809  34CE               	retlw	206
  1555  180A  34CC               	retlw	204
  1556  180B  343E               	retlw	62
  1557  180C                     __end_of_Lg2:
  1558                           
  1559                           	psect	stringtext4
  1560  180C                     __pstringtext4:
  1561  180C                     _Lg1:
  1562  180C  34AA               	retlw	170
  1563  180D  34AA               	retlw	170
  1564  180E  342A               	retlw	42
  1565  180F  343F               	retlw	63
  1566  1810                     __end_of_Lg1:
  1567                           
  1568                           	psect	stringtext5
  1569  1810                     __pstringtext5:
  1570  1810                     _ln2_lo:
  1571  1810  34D1               	retlw	209
  1572  1811  34F7               	retlw	247
  1573  1812  3417               	retlw	23
  1574  1813  3437               	retlw	55
  1575  1814                     __end_of_ln2_lo:
  1576                           
  1577                           	psect	stringtext6
  1578  1814                     __pstringtext6:
  1579  1814                     _ln2_hi:
  1580  1814  3480               	retlw	128
  1581  1815  3471               	retlw	113
  1582  1816  3431               	retlw	49
  1583  1817  343F               	retlw	63
  1584  1818                     __end_of_ln2_hi:
  1585  000C                     _PORTAbits	set	12
  1586  000E                     _PORTCbits	set	14
  1587  000C                     _PORTA	set	12
  1588  009D                     _ADCON0bits	set	157
  1589  009C                     _ADRESH	set	156
  1590  04E9                     _GO	set	1257
  1591  04E8                     _ADON	set	1256
  1592  04F7                     _ADFM	set	1271
  1593  0464                     _TRISA4	set	1124
  1594  0462                     _TRISA2	set	1122
  1595  0465                     _TRISA5	set	1125
  1596  0475                     _TRISC5	set	1141
  1597  0473                     _TRISC3	set	1139
  1598  0472                     _TRISC2	set	1138
  1599  0471                     _TRISC1	set	1137
  1600  0470                     _TRISC0	set	1136
  1601  018E                     _ANSELC	set	398
  1602  018C                     _ANSELA	set	396
  1603  0C64                     _ANSA4	set	3172
  1604  0215                     _SSP1CONbits	set	533
  1605  0215                     _SSP1CON1bits	set	533
  1606  0214                     _SSP1STATbits	set	532
  1607  0211                     _SSP1BUF	set	529
  1608  1064                     _WPUA4	set	4196
  1609  0E21                     _SSPDATPPS	set	3617
  1610  0EA3                     _RC3PPS	set	3747
  1611  0EA0                     _RC0PPS	set	3744
  1612                           
  1613                           	psect	cinit
  1614  07CA                     start_initialization:	
  1615                           ; #config settings
  1616                           
  1617  07CA                     __initialization:
  1618                           
  1619                           ; Initialize objects allocated to BANK2
  1620  07CA  30D8               	movlw	low __pidataBANK2
  1621  07CB  0084               	movwf	4
  1622  07CC  3096               	movlw	(high __pidataBANK2)| (0+128)
  1623  07CD  0085               	movwf	5
  1624  07CE  3020               	movlw	low __pdataBANK2
  1625  07CF  0086               	movwf	6
  1626  07D0  3001               	movlw	high __pdataBANK2
  1627  07D1  0087               	movwf	7
  1628  07D2  3020               	movlw	32
  1629  07D3  3195  2513  3187   	fcall	init_ram
  1630                           
  1631                           ; Initialize objects allocated to BANK4
  1632  07D6  3000               	movlw	low __pidataBANK4
  1633  07D7  0084               	movwf	4
  1634  07D8  3088               	movlw	(high __pidataBANK4)| (0+128)
  1635  07D9  0085               	movwf	5
  1636  07DA  3020               	movlw	low __pdataBANK4
  1637  07DB  0086               	movwf	6
  1638  07DC  3002               	movlw	high __pdataBANK4
  1639  07DD  0087               	movwf	7
  1640  07DE  300A               	movlw	10
  1641  07DF  3195  2513  3187   	fcall	init_ram
  1642                           
  1643                           ; Initialize objects allocated to BANK5
  1644  07E2  30B5               	movlw	low __pidataBANK5
  1645  07E3  0084               	movwf	4
  1646  07E4  3097               	movlw	(high __pidataBANK5)| (0+128)
  1647  07E5  0085               	movwf	5
  1648  07E6  30A0               	movlw	low __pdataBANK5
  1649  07E7  0086               	movwf	6
  1650  07E8  3002               	movlw	high __pdataBANK5
  1651  07E9  0087               	movwf	7
  1652  07EA  304B               	movlw	75
  1653  07EB  3195  2513  3187   	fcall	init_ram
  1654                           
  1655                           ; Clear objects allocated to BANK1
  1656  07EE  0021               	movlb	1	; select bank1
  1657  07EF  01EE               	clrf	__pbssBANK1& (0+127)
  1658  07F0  01EF               	clrf	(__pbssBANK1+1)& (0+127)
  1659                           
  1660                           ; Clear objects allocated to BANK2
  1661  07F1  3040               	movlw	low __pbssBANK2
  1662  07F2  0084               	movwf	4
  1663  07F3  3001               	movlw	high __pbssBANK2
  1664  07F4  0085               	movwf	5
  1665  07F5  301D               	movlw	29
  1666  07F6  3195  250D  3187   	fcall	clear_ram0
  1667                           
  1668                           ; Clear objects allocated to BANK3
  1669  07F9  0023               	movlb	3	; select bank3
  1670  07FA  01EC               	clrf	__pbssBANK3& (0+127)
  1671  07FB  01ED               	clrf	(__pbssBANK3+1)& (0+127)
  1672  07FC  01EE               	clrf	(__pbssBANK3+2)& (0+127)
  1673  07FD                     end_of_initialization:	
  1674                           ;End of C runtime variable initialization code
  1675                           
  1676  07FD                     __end_of__initialization:
  1677  07FD  0020               	movlb	0
  1678  07FE  3189  2932         	ljmp	_main	;jump to C main() function
  1679                           
  1680                           	psect	bssBANK1
  1681  00EE                     __pbssBANK1:
  1682  00EE                     _rssi:
  1683  00EE                     	ds	1
  1684  00EF                     _rssiThresh:
  1685  00EF                     	ds	1
  1686                           
  1687                           	psect	bssBANK2
  1688  0140                     __pbssBANK2:
  1689  0140                     logf@F472:
  1690  0140                     	ds	4
  1691  0144                     _errno:
  1692  0144                     	ds	2
  1693  0146                     setAutoMode@F9519:
  1694  0146                     	ds	2
  1695  0148                     setDiodeMapping@F9494:
  1696  0148                     	ds	2
  1697  014A                     setPowerOutput@F9469:
  1698  014A                     	ds	2
  1699  014C                     setModulationThreshold@F9451:
  1700  014C                     	ds	2
  1701  014E                     setOperatingMode@F9445:
  1702  014E                     	ds	2
  1703  0150                     setRSSIThreshold@F9436:
  1704  0150                     	ds	2
  1705  0152                     setNodeAddress@F9432:
  1706  0152                     	ds	2
  1707  0154                     setPacketLength@F9428:
  1708  0154                     	ds	2
  1709  0156                     sendPairs@F9406:
  1710  0156                     	ds	2
  1711  0158                     _powerSettings:
  1712  0158                     	ds	1
  1713  0159                     _thermistorTemp:
  1714  0159                     	ds	4
  1715                           
  1716                           	psect	dataBANK2
  1717  0120                     __pdataBANK2:
  1718  0120                     _SYNC_WORDS:
  1719  0120                     	ds	8
  1720  0128                     getPowerSettings@F9514:
  1721  0128                     	ds	2
  1722  012A                     restartRx@F9510:
  1723  012A                     	ds	2
  1724  012C                     startRSSISampling@F9506:
  1725  012C                     	ds	2
  1726  012E                     checkRSSISampling@F9502:
  1727  012E                     	ds	2
  1728  0130                     getModeFlags@F9498:
  1729  0130                     	ds	2
  1730  0132                     getOperatingMode@F9489:
  1731  0132                     	ds	2
  1732  0134                     getRSSIThreshold@F9485:
  1733  0134                     	ds	2
  1734  0136                     getFifoFlags@F9481:
  1735  0136                     	ds	2
  1736  0138                     getRSSI@F9477:
  1737  0138                     	ds	2
  1738  013A                     setPreambleLength@F9462:
  1739  013A                     	ds	2
  1740  013C                     checkForPayload@F9455:
  1741  013C                     	ds	2
  1742  013E                     setPacketFormat@F9440:
  1743  013E                     	ds	2
  1744                           
  1745                           	psect	bssBANK3
  1746  01EC                     __pbssBANK3:
  1747  01EC                     _operatingMode:
  1748  01EC                     	ds	1
  1749  01ED                     _modeFlags:
  1750  01ED                     	ds	1
  1751  01EE                     _fifoFlags:
  1752  01EE                     	ds	1
  1753                           
  1754                           	psect	dataBANK4
  1755  0220                     __pdataBANK4:
  1756  0220                     _recommended_params:
  1757  0220                     	ds	10
  1758                           
  1759                           	psect	dataBANK5
  1760  02A0                     __pdataBANK5:
  1761  02A0                     main@F9844:
  1762  02A0                     	ds	75
  1763                           
  1764                           	psect	inittext
  1765  1513                     init_ram:
  1766  1513  00FE               	movwf	btemp
  1767  1514                     initloop:
  1768  1514  0012               	moviw fsr0++
  1769  1515  001E               	movwi fsr1++
  1770  1516  0BFE               	decfsz	btemp,f
  1771  1517  2D14               	goto	initloop
  1772  1518  3400               	retlw	0
  1773                           
  1774                           	psect	clrtext
  1775  150D                     clear_ram0:	
  1776                           ;	Called with FSR0 containing the base address, and
  1777                           ;	WREG with the size to clear
  1778                           
  1779  150D  0064               	clrwdt	;clear the watchdog before getting into this loop
  1780  150E                     clrloop0:
  1781  150E  0180               	clrf	0	;clear RAM location pointed to by FSR
  1782  150F  3101               	addfsr 0,1
  1783  1510  0B89               	decfsz	9,f	;Have we reached the end of clearing yet?
  1784  1511  2D0E               	goto	clrloop0	;have we reached the end yet?
  1785  1512  3400               	retlw	0	;all done for this memory range, return
  1786                           
  1787                           	psect	cstackBANK3
  1788  01A0                     __pcstackBANK3:
  1789  01A0                     main@payload:
  1790                           
  1791                           ; 1 bytes @ 0x0
  1792  01A0                     	ds	1
  1793  01A1                     main@radio:
  1794                           
  1795                           ; 75 bytes @ 0x1
  1796  01A1                     	ds	75
  1797                           
  1798                           	psect	cstackBANK2
  1799  015D                     __pcstackBANK2:
  1800  015D                     ??_thermistor_temp:
  1801                           
  1802                           ; 1 bytes @ 0x0
  1803  015D                     	ds	4
  1804  0161                     thermistor_temp@resistance:
  1805                           
  1806                           ; 4 bytes @ 0x4
  1807  0161                     	ds	4
  1808  0165                     _thermistor_temp$1134:
  1809                           
  1810                           ; 4 bytes @ 0x8
  1811  0165                     	ds	4
  1812  0169                     thermistor_temp@temperature:
  1813                           
  1814                           ; 4 bytes @ 0xC
  1815  0169                     	ds	4
  1816                           
  1817                           	psect	cstackBANK1
  1818  00A0                     __pcstackBANK1:
  1819  00A0                     ??_logf:
  1820                           
  1821                           ; 1 bytes @ 0x0
  1822  00A0                     	ds	8
  1823  00A8                     logf@R:
  1824                           
  1825                           ; 4 bytes @ 0x8
  1826  00A8                     	ds	4
  1827  00AC                     logf@t1:
  1828                           
  1829                           ; 4 bytes @ 0xC
  1830  00AC                     	ds	4
  1831  00B0                     logf@t2:
  1832                           
  1833                           ; 4 bytes @ 0x10
  1834  00B0                     	ds	4
  1835  00B4                     _logf$1136:
  1836                           
  1837                           ; 4 bytes @ 0x14
  1838  00B4                     	ds	4
  1839  00B8                     _logf$1137:
  1840                           
  1841                           ; 4 bytes @ 0x18
  1842  00B8                     	ds	4
  1843  00BC                     _logf$1138:
  1844                           
  1845                           ; 4 bytes @ 0x1C
  1846  00BC                     	ds	4
  1847  00C0                     _logf$1139:
  1848                           
  1849                           ; 4 bytes @ 0x20
  1850  00C0                     	ds	4
  1851  00C4                     logf@k:
  1852                           
  1853                           ; 2 bytes @ 0x24
  1854  00C4                     	ds	2
  1855  00C6                     logf@hfsq:
  1856                           
  1857                           ; 4 bytes @ 0x26
  1858  00C6                     	ds	4
  1859  00CA                     logf@dk:
  1860                           
  1861                           ; 4 bytes @ 0x2A
  1862  00CA                     	ds	4
  1863  00CE                     logf@s:
  1864                           
  1865                           ; 4 bytes @ 0x2E
  1866  00CE                     	ds	4
  1867  00D2                     logf@z:
  1868                           
  1869                           ; 4 bytes @ 0x32
  1870  00D2                     	ds	4
  1871  00D6                     logf@w:
  1872                           
  1873                           ; 4 bytes @ 0x36
  1874  00D6                     	ds	4
  1875  00DA                     _logf$1135:
  1876                           
  1877                           ; 4 bytes @ 0x3A
  1878  00DA                     	ds	4
  1879  00DE                     logf@u:
  1880                           
  1881                           ; 4 bytes @ 0x3E
  1882  00DE                     	ds	4
  1883  00E2                     logf@f:
  1884                           
  1885                           ; 4 bytes @ 0x42
  1886  00E2                     	ds	4
  1887  00E6                     logf@ix:
  1888                           
  1889                           ; 4 bytes @ 0x46
  1890  00E6                     	ds	4
  1891  00EA                     ?_thermistor_temp:
  1892                           
  1893                           ; 4 bytes @ 0x4A
  1894  00EA                     	ds	4
  1895                           
  1896                           	psect	cstackCOMMON
  1897  0070                     __pcstackCOMMON:
  1898  0070                     ?_rfmSetup:
  1899  0070                     ?_spi_init_master:	
  1900                           ; 1 bytes @ 0x0
  1901                           
  1902  0070                     ??_spi_init_master:	
  1903                           ; 1 bytes @ 0x0
  1904                           
  1905  0070                     ?_initRadio:	
  1906                           ; 1 bytes @ 0x0
  1907                           
  1908  0070                     ?_setModulationThreshold:	
  1909                           ; 1 bytes @ 0x0
  1910                           
  1911  0070                     ?_getFifoFlags:	
  1912                           ; 1 bytes @ 0x0
  1913                           
  1914  0070                     ?_getModeFlags:	
  1915                           ; 1 bytes @ 0x0
  1916                           
  1917  0070                     ?_getOperatingMode:	
  1918                           ; 1 bytes @ 0x0
  1919                           
  1920  0070                     ?_setPinWithMask:	
  1921                           ; 1 bytes @ 0x0
  1922                           
  1923  0070                     ?_send:	
  1924                           ; 1 bytes @ 0x0
  1925                           
  1926  0070                     ?_TRIS_ANS_Setup:	
  1927                           ; 1 bytes @ 0x0
  1928                           
  1929  0070                     ??_TRIS_ANS_Setup:	
  1930                           ; 1 bytes @ 0x0
  1931                           
  1932  0070                     ?_analogSetup:	
  1933                           ; 1 bytes @ 0x0
  1934                           
  1935  0070                     ??_analogSetup:	
  1936                           ; 1 bytes @ 0x0
  1937                           
  1938  0070                     ?_resetRadio:	
  1939                           ; 1 bytes @ 0x0
  1940                           
  1941  0070                     ??_resetRadio:	
  1942                           ; 1 bytes @ 0x0
  1943                           
  1944  0070                     ?_setSyncWords:	
  1945                           ; 1 bytes @ 0x0
  1946                           
  1947  0070                     ?_setPacketLength:	
  1948                           ; 1 bytes @ 0x0
  1949                           
  1950  0070                     ?_setNodeAddress:	
  1951                           ; 1 bytes @ 0x0
  1952                           
  1953  0070                     ?_setRSSIThreshold:	
  1954                           ; 1 bytes @ 0x0
  1955                           
  1956  0070                     ?_setPacketFormat:	
  1957                           ; 1 bytes @ 0x0
  1958                           
  1959  0070                     ?_setRecommendedParams:	
  1960                           ; 1 bytes @ 0x0
  1961                           
  1962  0070                     ?_setPreambleLength:	
  1963                           ; 1 bytes @ 0x0
  1964                           
  1965  0070                     ?__Umul8_16:	
  1966                           ; 1 bytes @ 0x0
  1967                           
  1968  0070                     ?_init:	
  1969                           ; 2 bytes @ 0x0
  1970                           
  1971  0070                     ?_main:	
  1972                           ; 2 bytes @ 0x0
  1973                           
  1974  0070                     ?___xxtofl:	
  1975                           ; 2 bytes @ 0x0
  1976                           
  1977  0070                     send@msg:	
  1978                           ; 4 bytes @ 0x0
  1979                           
  1980  0070                     __Umul8_16@multiplicand:	
  1981                           ; 1 bytes @ 0x0
  1982                           
  1983  0070                     setPinWithMask@pPort:	
  1984                           ; 1 bytes @ 0x0
  1985                           
  1986  0070                     ___xxtofl@val:	
  1987                           ; 2 bytes @ 0x0
  1988                           
  1989                           
  1990                           ; 4 bytes @ 0x0
  1991  0070                     	ds	1
  1992  0071                     ??_rfmSetup:
  1993  0071                     ??_send:	
  1994                           ; 1 bytes @ 0x1
  1995                           
  1996                           
  1997                           ; 1 bytes @ 0x1
  1998  0071                     	ds	1
  1999  0072                     ??__Umul8_16:
  2000  0072                     ??_init:	
  2001                           ; 1 bytes @ 0x2
  2002                           
  2003  0072                     setPinWithMask@iPin:	
  2004                           ; 1 bytes @ 0x2
  2005                           
  2006                           
  2007                           ; 1 bytes @ 0x2
  2008  0072                     	ds	1
  2009  0073                     send@temp:
  2010  0073                     setPinWithMask@value:	
  2011                           ; 1 bytes @ 0x3
  2012                           
  2013                           
  2014                           ; 1 bytes @ 0x3
  2015  0073                     	ds	1
  2016  0074                     ??_setPinWithMask:
  2017  0074                     ??___xxtofl:	
  2018                           ; 1 bytes @ 0x4
  2019                           
  2020  0074                     send@radio:	
  2021                           ; 1 bytes @ 0x4
  2022                           
  2023  0074                     __Umul8_16@product:	
  2024                           ; 1 bytes @ 0x4
  2025                           
  2026                           
  2027                           ; 2 bytes @ 0x4
  2028  0074                     	ds	2
  2029  0076                     ?_sendPayload:
  2030  0076                     ?_sendBulk:	
  2031                           ; 1 bytes @ 0x6
  2032                           
  2033  0076                     sendBulk@msgs:	
  2034                           ; 1 bytes @ 0x6
  2035                           
  2036  0076                     sendPayload@payload:	
  2037                           ; 1 bytes @ 0x6
  2038                           
  2039  0076                     __Umul8_16@word_mpld:	
  2040                           ; 1 bytes @ 0x6
  2041                           
  2042                           
  2043                           ; 2 bytes @ 0x6
  2044  0076                     	ds	1
  2045  0077                     ??_sendPayload:
  2046  0077                     sendBulk@len:	
  2047                           ; 1 bytes @ 0x7
  2048                           
  2049                           
  2050                           ; 1 bytes @ 0x7
  2051  0077                     	ds	1
  2052  0078                     ??_sendBulk:
  2053  0078                     __Umul8_16@multiplier:	
  2054                           ; 1 bytes @ 0x8
  2055                           
  2056  0078                     ___xxtofl@sign:	
  2057                           ; 1 bytes @ 0x8
  2058                           
  2059                           
  2060                           ; 1 bytes @ 0x8
  2061  0078                     	ds	1
  2062  0079                     ??___flmul:
  2063  0079                     ___xxtofl@exp:	
  2064                           ; 1 bytes @ 0x9
  2065                           
  2066  0079                     sendPayload@i:	
  2067                           ; 1 bytes @ 0x9
  2068                           
  2069                           
  2070                           ; 2 bytes @ 0x9
  2071  0079                     	ds	1
  2072  007A                     ___xxtofl@arg:
  2073                           
  2074                           ; 4 bytes @ 0xA
  2075  007A                     	ds	1
  2076  007B                     sendPayload@radio:
  2077                           
  2078                           ; 1 bytes @ 0xB
  2079  007B                     	ds	1
  2080  007C                     ?_setPowerOutput:
  2081  007C                     ??_setModulationThreshold:	
  2082                           ; 1 bytes @ 0xC
  2083                           
  2084  007C                     ?_setOperatingMode:	
  2085                           ; 1 bytes @ 0xC
  2086                           
  2087  007C                     ?_setAutoMode:	
  2088                           ; 1 bytes @ 0xC
  2089                           
  2090  007C                     ??_getFifoFlags:	
  2091                           ; 1 bytes @ 0xC
  2092                           
  2093  007C                     ??_getModeFlags:	
  2094                           ; 1 bytes @ 0xC
  2095                           
  2096  007C                     ??_getOperatingMode:	
  2097                           ; 1 bytes @ 0xC
  2098                           
  2099  007C                     ??_sendPairs:	
  2100                           ; 1 bytes @ 0xC
  2101                           
  2102  007C                     ??_setSyncWords:	
  2103                           ; 1 bytes @ 0xC
  2104                           
  2105  007C                     ??_setPacketLength:	
  2106                           ; 1 bytes @ 0xC
  2107                           
  2108  007C                     ??_setNodeAddress:	
  2109                           ; 1 bytes @ 0xC
  2110                           
  2111  007C                     ??_setRSSIThreshold:	
  2112                           ; 1 bytes @ 0xC
  2113                           
  2114  007C                     ??_setPacketFormat:	
  2115                           ; 1 bytes @ 0xC
  2116                           
  2117  007C                     ??_setPreambleLength:	
  2118                           ; 1 bytes @ 0xC
  2119                           
  2120  007C                     setOperatingMode@operatingMode:	
  2121                           ; 1 bytes @ 0xC
  2122                           
  2123  007C                     setPowerOutput@powerSettings:	
  2124                           ; 1 bytes @ 0xC
  2125                           
  2126  007C                     setAutoMode@autoModes:	
  2127                           ; 1 bytes @ 0xC
  2128                           
  2129                           
  2130                           ; 1 bytes @ 0xC
  2131  007C                     	ds	2
  2132  007E                     ??_initRadio:
  2133  007E                     ??___flsub:	
  2134                           ; 1 bytes @ 0xE
  2135                           
  2136                           
  2137                           	psect	cstackBANK0
  2138  0020                     __pcstackBANK0:	
  2139                           ; 1 bytes @ 0xE
  2140                           
  2141  0020                     ?___flmul:
  2142  0020                     sendBulk@i:	
  2143                           ; 4 bytes @ 0x0
  2144                           
  2145  0020                     ___flmul@b:	
  2146                           ; 2 bytes @ 0x0
  2147                           
  2148                           
  2149                           ; 4 bytes @ 0x0
  2150  0020                     	ds	2
  2151  0022                     sendBulk@radio:
  2152                           
  2153                           ; 1 bytes @ 0x2
  2154  0022                     	ds	1
  2155  0023                     ??_setPowerOutput:
  2156  0023                     ??_setOperatingMode:	
  2157                           ; 1 bytes @ 0x3
  2158                           
  2159  0023                     ??_setAutoMode:	
  2160                           ; 1 bytes @ 0x3
  2161                           
  2162  0023                     ?_sendPairs:	
  2163                           ; 1 bytes @ 0x3
  2164                           
  2165  0023                     sendPairs@msgs:	
  2166                           ; 1 bytes @ 0x3
  2167                           
  2168  0023                     getOperatingMode@radio:	
  2169                           ; 1 bytes @ 0x3
  2170                           
  2171  0023                     setPacketLength@msg:	
  2172                           ; 1 bytes @ 0x3
  2173                           
  2174  0023                     setNodeAddress@msg:	
  2175                           ; 2 bytes @ 0x3
  2176                           
  2177  0023                     setRSSIThreshold@msg:	
  2178                           ; 2 bytes @ 0x3
  2179                           
  2180  0023                     setPacketFormat@msg:	
  2181                           ; 2 bytes @ 0x3
  2182                           
  2183  0023                     setModulationThreshold@msg:	
  2184                           ; 2 bytes @ 0x3
  2185                           
  2186  0023                     setPreambleLength@msg:	
  2187                           ; 2 bytes @ 0x3
  2188                           
  2189  0023                     getFifoFlags@msg:	
  2190                           ; 2 bytes @ 0x3
  2191                           
  2192  0023                     getModeFlags@msg:	
  2193                           ; 2 bytes @ 0x3
  2194                           
  2195  0023                     setSyncWords@msg:	
  2196                           ; 2 bytes @ 0x3
  2197                           
  2198                           
  2199                           ; 10 bytes @ 0x3
  2200  0023                     	ds	1
  2201  0024                     sendPairs@len:
  2202  0024                     getOperatingMode@msg:	
  2203                           ; 2 bytes @ 0x4
  2204                           
  2205  0024                     ___flmul@a:	
  2206                           ; 2 bytes @ 0x4
  2207                           
  2208                           
  2209                           ; 4 bytes @ 0x4
  2210  0024                     	ds	1
  2211  0025                     setPacketLength@radio:
  2212  0025                     setNodeAddress@radio:	
  2213                           ; 1 bytes @ 0x5
  2214                           
  2215  0025                     setRSSIThreshold@radio:	
  2216                           ; 1 bytes @ 0x5
  2217                           
  2218  0025                     setPacketFormat@radio:	
  2219                           ; 1 bytes @ 0x5
  2220                           
  2221  0025                     setOperatingMode@radio:	
  2222                           ; 1 bytes @ 0x5
  2223                           
  2224  0025                     setModulationThreshold@radio:	
  2225                           ; 1 bytes @ 0x5
  2226                           
  2227  0025                     setPreambleLength@radio:	
  2228                           ; 1 bytes @ 0x5
  2229                           
  2230  0025                     setPowerOutput@radio:	
  2231                           ; 1 bytes @ 0x5
  2232                           
  2233  0025                     getFifoFlags@radio:	
  2234                           ; 1 bytes @ 0x5
  2235                           
  2236  0025                     getModeFlags@radio:	
  2237                           ; 1 bytes @ 0x5
  2238                           
  2239  0025                     setAutoMode@radio:	
  2240                           ; 1 bytes @ 0x5
  2241                           
  2242                           
  2243                           ; 1 bytes @ 0x5
  2244  0025                     	ds	1
  2245  0026                     sendPairs@radio:
  2246  0026                     setOperatingMode@msg:	
  2247                           ; 1 bytes @ 0x6
  2248                           
  2249  0026                     setPowerOutput@msg:	
  2250                           ; 2 bytes @ 0x6
  2251                           
  2252  0026                     setAutoMode@msg:	
  2253                           ; 2 bytes @ 0x6
  2254                           
  2255                           
  2256                           ; 2 bytes @ 0x6
  2257  0026                     	ds	1
  2258  0027                     sendPairs@msg:
  2259                           
  2260                           ; 2 bytes @ 0x7
  2261  0027                     	ds	1
  2262  0028                     ___flmul@sign:
  2263                           
  2264                           ; 1 bytes @ 0x8
  2265  0028                     	ds	1
  2266  0029                     sendPairs@i:
  2267  0029                     ___flmul@grs:	
  2268                           ; 2 bytes @ 0x9
  2269                           
  2270                           
  2271                           ; 4 bytes @ 0x9
  2272  0029                     	ds	2
  2273  002B                     ??_setRecommendedParams:
  2274                           
  2275                           ; 1 bytes @ 0xB
  2276  002B                     	ds	1
  2277  002C                     setRecommendedParams@radio:
  2278                           
  2279                           ; 1 bytes @ 0xC
  2280  002C                     	ds	1
  2281  002D                     setSyncWords@radio:
  2282  002D                     ___flmul@aexp:	
  2283                           ; 1 bytes @ 0xD
  2284                           
  2285                           
  2286                           ; 1 bytes @ 0xD
  2287  002D                     	ds	1
  2288  002E                     ___flmul@bexp:
  2289  002E                     setSyncWords@i:	
  2290                           ; 1 bytes @ 0xE
  2291                           
  2292                           
  2293                           ; 2 bytes @ 0xE
  2294  002E                     	ds	1
  2295  002F                     ___flmul@prod:
  2296                           
  2297                           ; 4 bytes @ 0xF
  2298  002F                     	ds	1
  2299  0030                     initRadio@radio:
  2300                           
  2301                           ; 1 bytes @ 0x10
  2302  0030                     	ds	3
  2303  0033                     ___flmul@temp:
  2304                           
  2305                           ; 2 bytes @ 0x13
  2306  0033                     	ds	2
  2307  0035                     ?___fldiv:
  2308  0035                     ___fldiv@a:	
  2309                           ; 4 bytes @ 0x15
  2310                           
  2311                           
  2312                           ; 4 bytes @ 0x15
  2313  0035                     	ds	4
  2314  0039                     ___fldiv@b:
  2315                           
  2316                           ; 4 bytes @ 0x19
  2317  0039                     	ds	4
  2318  003D                     ??___fldiv:
  2319                           
  2320                           ; 1 bytes @ 0x1D
  2321  003D                     	ds	5
  2322  0042                     ___fldiv@rem:
  2323                           
  2324                           ; 4 bytes @ 0x22
  2325  0042                     	ds	4
  2326  0046                     ___fldiv@sign:
  2327                           
  2328                           ; 1 bytes @ 0x26
  2329  0046                     	ds	1
  2330  0047                     ___fldiv@new_exp:
  2331                           
  2332                           ; 2 bytes @ 0x27
  2333  0047                     	ds	2
  2334  0049                     ___fldiv@grs:
  2335                           
  2336                           ; 4 bytes @ 0x29
  2337  0049                     	ds	4
  2338  004D                     ___fldiv@bexp:
  2339                           
  2340                           ; 1 bytes @ 0x2D
  2341  004D                     	ds	1
  2342  004E                     ___fldiv@aexp:
  2343                           
  2344                           ; 1 bytes @ 0x2E
  2345  004E                     	ds	1
  2346  004F                     ?___fladd:
  2347  004F                     ___fladd@b:	
  2348                           ; 4 bytes @ 0x2F
  2349                           
  2350                           
  2351                           ; 4 bytes @ 0x2F
  2352  004F                     	ds	4
  2353  0053                     ___fladd@a:
  2354                           
  2355                           ; 4 bytes @ 0x33
  2356  0053                     	ds	4
  2357  0057                     ??___fladd:
  2358                           
  2359                           ; 1 bytes @ 0x37
  2360  0057                     	ds	8
  2361  005F                     ___fladd@signs:
  2362                           
  2363                           ; 1 bytes @ 0x3F
  2364  005F                     	ds	1
  2365  0060                     ___fladd@aexp:
  2366                           
  2367                           ; 1 bytes @ 0x40
  2368  0060                     	ds	1
  2369  0061                     ___fladd@bexp:
  2370                           
  2371                           ; 1 bytes @ 0x41
  2372  0061                     	ds	1
  2373  0062                     ___fladd@grs:
  2374                           
  2375                           ; 1 bytes @ 0x42
  2376  0062                     	ds	1
  2377  0063                     ?___flsub:
  2378  0063                     ___flsub@a:	
  2379                           ; 4 bytes @ 0x43
  2380                           
  2381                           
  2382                           ; 4 bytes @ 0x43
  2383  0063                     	ds	4
  2384  0067                     ___flsub@b:
  2385                           
  2386                           ; 4 bytes @ 0x47
  2387  0067                     	ds	4
  2388  006B                     ?_logf:
  2389  006B                     logf@x:	
  2390                           ; 4 bytes @ 0x4B
  2391                           
  2392                           
  2393                           ; 4 bytes @ 0x4B
  2394  006B                     	ds	4
  2395  006F                     ??_main:
  2396                           
  2397                           ; 1 bytes @ 0x4F
  2398  006F                     	ds	1
  2399                           
  2400                           	psect	maintext
  2401  0932                     __pmaintext:	
  2402 ;;
  2403 ;;Main: autosize = 0, tempsize = 1, incstack = 0, save=0
  2404 ;;
  2405 ;; *************** function _main *****************
  2406 ;; Defined at:
  2407 ;;		line 124 in file "transmitter.c"
  2408 ;; Parameters:    Size  Location     Type
  2409 ;;		None
  2410 ;; Auto vars:     Size  Location     Type
  2411 ;;  radio          75    1[BANK3 ] struct RFM69HCW
  2412 ;;  payload         1    0[BANK3 ] PTR unsigned char 
  2413 ;;		 -> thermistorTemp(4), 
  2414 ;; Return value:  Size  Location     Type
  2415 ;;                  2  121[None  ] int 
  2416 ;; Registers used:
  2417 ;;		wreg, fsr0l, fsr0h, fsr1l, fsr1h, status,2, status,0, pclath, cstack
  2418 ;; Tracked objects:
  2419 ;;		On entry : B1F/0
  2420 ;;		On exit  : 0/0
  2421 ;;		Unchanged: 0/0
  2422 ;; Data sizes:     COMMON   BANK0   BANK1   BANK2   BANK3   BANK4   BANK5   BANK6   BANK7   BANK8   BANK9  BANK10  BANK1
      +1  BANK12
  2423 ;;      Params:         0       0       0       0       0       0       0       0       0       0       0       0       
      +0       0
  2424 ;;      Locals:         0       0       0       0      76       0       0       0       0       0       0       0       
      +0       0
  2425 ;;      Temps:          0       1       0       0       0       0       0       0       0       0       0       0       
      +0       0
  2426 ;;      Totals:         0       1       0       0      76       0       0       0       0       0       0       0       
      +0       0
  2427 ;;Total ram usage:       77 bytes
  2428 ;; Hardware stack levels required when called: 5
  2429 ;; This function calls:
  2430 ;;		_getFifoFlags
  2431 ;;		_getModeFlags
  2432 ;;		_getOperatingMode
  2433 ;;		_init
  2434 ;;		_initRadio
  2435 ;;		_sendPayload
  2436 ;;		_setAutoMode
  2437 ;;		_setModulationThreshold
  2438 ;;		_setOperatingMode
  2439 ;;		_setPowerOutput
  2440 ;;		_thermistor_temp
  2441 ;; This function is called by:
  2442 ;;		Startup code after reset
  2443 ;; This function uses a non-reentrant model
  2444 ;;
  2445                           
  2446                           
  2447                           ;psect for function _main
  2448  0932                     _main:
  2449  0932                     l2701:	
  2450                           ;incstack = 0
  2451                           ; Regs used in _main: [wreg-fsr1h+status,2+status,0+pclath+cstack]
  2452                           
  2453                           
  2454                           ;transmitter.c: 125:     init();
  2455  0932  3195  2519  3189   	fcall	_init
  2456  0935                     l2703:
  2457                           
  2458                           ;transmitter.c: 126:     RFM69 radio = {.SSport = &PORTA, .SSbit = 2, .node_address = 0x
      +                          30, .packet_length = 4,
  2459  0935  30A0               	movlw	low main@F9844
  2460  0936  0086               	movwf	6
  2461  0937  3002               	movlw	high main@F9844
  2462  0938  0087               	movwf	7
  2463  0939  30A1               	movlw	low main@radio
  2464  093A  0084               	movwf	4
  2465  093B  3001               	movlw	high main@radio
  2466  093C  0085               	movwf	5
  2467  093D  304B               	movlw	75
  2468  093E  0020               	movlb	0	; select bank0
  2469  093F  00EF               	movwf	??_main
  2470  0940                     u2820:
  2471  0940  0016               	moviw fsr1++
  2472  0941  001A               	movwi fsr0++
  2473  0942  0BEF               	decfsz	??_main,f
  2474  0943  2940               	goto	u2820
  2475  0944                     l2705:
  2476                           
  2477                           ;transmitter.c: 129:     initRadio(&radio);
  2478  0944  30A1               	movlw	(low (main@radio| (0+256)))& (0+255)
  2479  0945  3197  2741  3189   	fcall	_initRadio
  2480  0948                     l2707:
  2481                           
  2482                           ;transmitter.c: 130:     byte *payload = &thermistorTemp;
  2483  0948  3059               	movlw	(low (_thermistorTemp| (0+256)))& (0+255)
  2484  0949  0020               	movlb	0	; select bank0
  2485  094A  00EF               	movwf	??_main
  2486  094B  086F               	movf	??_main,w
  2487  094C  0023               	movlb	3	; select bank3
  2488  094D  00A0               	movwf	main@payload^(0+384)
  2489  094E                     l2709:
  2490                           
  2491                           ;transmitter.c: 131:     setPowerOutput(&radio, 0x9F);
  2492  094E  309F               	movlw	159
  2493  094F  0020               	movlb	0	; select bank0
  2494  0950  00EF               	movwf	??_main
  2495  0951  086F               	movf	??_main,w
  2496  0952  00FC               	movwf	setPowerOutput@powerSettings
  2497  0953  30A1               	movlw	(low (main@radio| (0+256)))& (0+255)
  2498  0954  3196  2626  3189   	fcall	_setPowerOutput
  2499  0957                     l2711:
  2500                           
  2501                           ;transmitter.c: 132:     setModulationThreshold(&radio);
  2502  0957  30A1               	movlw	(low (main@radio| (0+256)))& (0+255)
  2503  0958  3196  2699  3189   	fcall	_setModulationThreshold
  2504  095B                     l2713:
  2505                           
  2506                           ;transmitter.c: 133:     setOperatingMode(&radio, 0xA0);
  2507  095B  30A0               	movlw	160
  2508  095C  0020               	movlb	0	; select bank0
  2509  095D  00EF               	movwf	??_main
  2510  095E  086F               	movf	??_main,w
  2511  095F  00FC               	movwf	setOperatingMode@operatingMode
  2512  0960  30A1               	movlw	(low (main@radio| (0+256)))& (0+255)
  2513  0961  3196  260D  3189   	fcall	_setOperatingMode
  2514  0964                     l2715:
  2515                           
  2516                           ;transmitter.c: 134:     setAutoMode(&radio, 0b01011011);
  2517  0964  305B               	movlw	91
  2518  0965  0020               	movlb	0	; select bank0
  2519  0966  00EF               	movwf	??_main
  2520  0967  086F               	movf	??_main,w
  2521  0968  00FC               	movwf	setAutoMode@autoModes
  2522  0969  30A1               	movlw	(low (main@radio| (0+256)))& (0+255)
  2523  096A  3195  25F4  3189   	fcall	_setAutoMode
  2524  096D                     l2717:
  2525                           
  2526                           ;transmitter.c: 136:         thermistorTemp = thermistor_temp();
  2527  096D  318A  2280  3189   	fcall	_thermistor_temp
  2528  0970  0021               	movlb	1	; select bank1
  2529  0971  086D               	movf	(?_thermistor_temp+3)^(0+128),w
  2530  0972  0022               	movlb	2	; select bank2
  2531  0973  00DC               	movwf	(_thermistorTemp+3)^(0+256)
  2532  0974  0021               	movlb	1	; select bank1
  2533  0975  086C               	movf	(?_thermistor_temp+2)^(0+128),w
  2534  0976  0022               	movlb	2	; select bank2
  2535  0977  00DB               	movwf	(_thermistorTemp+2)^(0+256)
  2536  0978  0021               	movlb	1	; select bank1
  2537  0979  086B               	movf	(?_thermistor_temp+1)^(0+128),w
  2538  097A  0022               	movlb	2	; select bank2
  2539  097B  00DA               	movwf	(_thermistorTemp+1)^(0+256)
  2540  097C  0021               	movlb	1	; select bank1
  2541  097D  086A               	movf	?_thermistor_temp^(0+128),w
  2542  097E  0022               	movlb	2	; select bank2
  2543  097F  00D9               	movwf	_thermistorTemp^(0+256)
  2544  0980                     l2719:
  2545                           
  2546                           ;transmitter.c: 137:         fifoFlags = getFifoFlags(&radio);
  2547  0980  30A1               	movlw	(low (main@radio| (0+256)))& (0+255)
  2548  0981  3195  25A9  3189   	fcall	_getFifoFlags
  2549  0984  0020               	movlb	0	; select bank0
  2550  0985  00EF               	movwf	??_main
  2551  0986  086F               	movf	??_main,w
  2552  0987  0023               	movlb	3	; select bank3
  2553  0988  00EE               	movwf	_fifoFlags^(0+384)
  2554  0989                     l2721:
  2555                           
  2556                           ;transmitter.c: 138:         modeFlags = getModeFlags(&radio);
  2557  0989  30A1               	movlw	(low (main@radio| (0+256)))& (0+255)
  2558  098A  3195  25C2  3189   	fcall	_getModeFlags
  2559  098D  0020               	movlb	0	; select bank0
  2560  098E  00EF               	movwf	??_main
  2561  098F  086F               	movf	??_main,w
  2562  0990  0023               	movlb	3	; select bank3
  2563  0991  00ED               	movwf	_modeFlags^(0+384)
  2564  0992                     l2723:
  2565                           
  2566                           ;transmitter.c: 139:         if (PORTAbits.RA5) {
  2567  0992  0020               	movlb	0	; select bank0
  2568  0993  1E8C               	btfss	12,5	;volatile
  2569  0994  2996               	goto	u2831
  2570  0995  2997               	goto	u2830
  2571  0996                     u2831:
  2572  0996  29A1               	goto	l125
  2573  0997                     u2830:
  2574  0997                     l2725:
  2575                           
  2576                           ;transmitter.c: 140:             sendPayload(&radio, payload);
  2577  0997  0023               	movlb	3	; select bank3
  2578  0998  0820               	movf	main@payload^(0+384),w
  2579  0999  0020               	movlb	0	; select bank0
  2580  099A  00EF               	movwf	??_main
  2581  099B  086F               	movf	??_main,w
  2582  099C  00F6               	movwf	sendPayload@payload
  2583  099D  30A1               	movlw	(low (main@radio| (0+256)))& (0+255)
  2584  099E  3188  200A  3189   	fcall	_sendPayload
  2585  09A1                     l125:	
  2586                           ;transmitter.c: 141:         }
  2587                           
  2588                           
  2589                           ;transmitter.c: 142:         fifoFlags = getFifoFlags(&radio);
  2590  09A1  30A1               	movlw	(low (main@radio| (0+256)))& (0+255)
  2591  09A2  3195  25A9  3189   	fcall	_getFifoFlags
  2592  09A5  0020               	movlb	0	; select bank0
  2593  09A6  00EF               	movwf	??_main
  2594  09A7  086F               	movf	??_main,w
  2595  09A8  0023               	movlb	3	; select bank3
  2596  09A9  00EE               	movwf	_fifoFlags^(0+384)
  2597                           
  2598                           ;transmitter.c: 143:         modeFlags = getModeFlags(&radio);
  2599  09AA  30A1               	movlw	(low (main@radio| (0+256)))& (0+255)
  2600  09AB  3195  25C2  3189   	fcall	_getModeFlags
  2601  09AE  0020               	movlb	0	; select bank0
  2602  09AF  00EF               	movwf	??_main
  2603  09B0  086F               	movf	??_main,w
  2604  09B1  0023               	movlb	3	; select bank3
  2605  09B2  00ED               	movwf	_modeFlags^(0+384)
  2606  09B3                     l2727:
  2607                           
  2608                           ;transmitter.c: 144:         _delay((unsigned long)((10)*(16000000/4000.0)));
  2609  09B3  3034               	movlw	52
  2610  09B4  0020               	movlb	0	; select bank0
  2611  09B5  00EF               	movwf	??_main
  2612  09B6  30F1               	movlw	241
  2613  09B7                     u2857:
  2614  09B7  0B89               	decfsz	9,f
  2615  09B8  29B7               	goto	u2857
  2616  09B9  0BEF               	decfsz	??_main,f
  2617  09BA  29B7               	goto	u2857
  2618  09BB  3200               	nop2
  2619  09BC                     l2729:
  2620                           
  2621                           ;transmitter.c: 145:         operatingMode = getOperatingMode(&radio);
  2622  09BC  30A1               	movlw	(low (main@radio| (0+256)))& (0+255)
  2623  09BD  3195  25DB  3189   	fcall	_getOperatingMode
  2624  09C0  0020               	movlb	0	; select bank0
  2625  09C1  00EF               	movwf	??_main
  2626  09C2  086F               	movf	??_main,w
  2627  09C3  0023               	movlb	3	; select bank3
  2628  09C4  00EC               	movwf	_operatingMode^(0+384)
  2629  09C5                     l2731:
  2630                           
  2631                           ;transmitter.c: 146:         payload[4 - 1]++;
  2632  09C5  3001               	movlw	1
  2633  09C6  0020               	movlb	0	; select bank0
  2634  09C7  00EF               	movwf	??_main
  2635  09C8  0023               	movlb	3	; select bank3
  2636  09C9  0820               	movf	main@payload^(0+384),w
  2637  09CA  3E03               	addlw	3
  2638  09CB  0086               	movwf	6
  2639  09CC  3001               	movlw	1	; select bank2/3
  2640  09CD  0087               	movwf	7
  2641  09CE  0020               	movlb	0	; select bank0
  2642  09CF  086F               	movf	??_main,w
  2643  09D0  0781               	addwf	1,f
  2644  09D1  296D               	goto	l2717
  2645  09D2  3180  2802         	ljmp	start
  2646  09D4                     __end_of_main:
  2647                           
  2648                           	psect	text1
  2649  0A80                     __ptext1:	
  2650 ;; *************** function _thermistor_temp *****************
  2651 ;; Defined at:
  2652 ;;		line 106 in file "transmitter.c"
  2653 ;; Parameters:    Size  Location     Type
  2654 ;;		None
  2655 ;; Auto vars:     Size  Location     Type
  2656 ;;  temperature     4   12[BANK2 ] float 
  2657 ;;  resistance      4    4[BANK2 ] float 
  2658 ;; Return value:  Size  Location     Type
  2659 ;;                  4   74[BANK1 ] float 
  2660 ;; Registers used:
  2661 ;;		wreg, status,2, status,0, pclath, cstack
  2662 ;; Tracked objects:
  2663 ;;		On entry : 0/0
  2664 ;;		On exit  : 0/0
  2665 ;;		Unchanged: 0/0
  2666 ;; Data sizes:     COMMON   BANK0   BANK1   BANK2   BANK3   BANK4   BANK5   BANK6   BANK7   BANK8   BANK9  BANK10  BANK1
      +1  BANK12
  2667 ;;      Params:         0       0       4       0       0       0       0       0       0       0       0       0       
      +0       0
  2668 ;;      Locals:         0       0       0      12       0       0       0       0       0       0       0       0       
      +0       0
  2669 ;;      Temps:          0       0       0       4       0       0       0       0       0       0       0       0       
      +0       0
  2670 ;;      Totals:         0       0       4      16       0       0       0       0       0       0       0       0       
      +0       0
  2671 ;;Total ram usage:       20 bytes
  2672 ;; Hardware stack levels used: 1
  2673 ;; Hardware stack levels required when called: 3
  2674 ;; This function calls:
  2675 ;;		___fladd
  2676 ;;		___fldiv
  2677 ;;		___flsub
  2678 ;;		___xxtofl
  2679 ;;		_logf
  2680 ;; This function is called by:
  2681 ;;		_main
  2682 ;; This function uses a non-reentrant model
  2683 ;;
  2684                           
  2685                           
  2686                           ;psect for function _thermistor_temp
  2687  0A80                     _thermistor_temp:
  2688  0A80                     l2623:	
  2689                           ;incstack = 0
  2690                           ; Regs used in _thermistor_temp: [wreg+status,2+status,0+pclath+cstack]
  2691                           
  2692                           
  2693                           ;transmitter.c: 107:     ADCON0bits.CHS = 0b00011;
  2694  0A80  0021               	movlb	1	; select bank1
  2695  0A81  081D               	movf	29,w	;volatile
  2696  0A82  3983               	andlw	-125
  2697  0A83  380C               	iorlw	12
  2698  0A84  009D               	movwf	29	;volatile
  2699  0A85                     l2625:
  2700                           
  2701                           ;transmitter.c: 108:     ADON = 1;
  2702  0A85  141D               	bsf	29,0	;volatile
  2703  0A86                     l2627:
  2704                           
  2705                           ;transmitter.c: 109:     PORTCbits.RC5 = 1;
  2706  0A86  0020               	movlb	0	; select bank0
  2707  0A87  168E               	bsf	14,5	;volatile
  2708  0A88                     l2629:
  2709                           
  2710                           ;transmitter.c: 110:     GO = 1;
  2711  0A88  0021               	movlb	1	; select bank1
  2712  0A89  149D               	bsf	29,1	;volatile
  2713  0A8A                     l114:	
  2714                           ;transmitter.c: 111:     while (GO);
  2715                           
  2716  0A8A  189D               	btfsc	29,1	;volatile
  2717  0A8B  2A8D               	goto	u2801
  2718  0A8C  2A8E               	goto	u2800
  2719  0A8D                     u2801:
  2720  0A8D  2A8A               	goto	l114
  2721  0A8E                     u2800:
  2722  0A8E                     l116:
  2723                           
  2724                           ;transmitter.c: 112:     PORTCbits.RC5 = 0;
  2725  0A8E  0020               	movlb	0	; select bank0
  2726  0A8F  128E               	bcf	14,5	;volatile
  2727                           
  2728                           ;transmitter.c: 113:     ADON = 0;
  2729  0A90  0021               	movlb	1	; select bank1
  2730  0A91  101D               	bcf	29,0	;volatile
  2731  0A92                     l2631:
  2732                           
  2733                           ;transmitter.c: 114:     float resistance = 10000.0 / ((255.0 / ADRESH) - 1);
  2734  0A92  30BF               	movlw	191
  2735  0A93  0020               	movlb	0	; select bank0
  2736  0A94  00D2               	movwf	___fladd@b+3
  2737  0A95  3080               	movlw	128
  2738  0A96  00D1               	movwf	___fladd@b+2
  2739  0A97  3000               	movlw	0
  2740  0A98  00D0               	movwf	___fladd@b+1
  2741  0A99  3000               	movlw	0
  2742  0A9A  00CF               	movwf	___fladd@b
  2743  0A9B  0021               	movlb	1	; select bank1
  2744  0A9C  081C               	movf	28,w	;volatile
  2745  0A9D  0022               	movlb	2	; select bank2
  2746  0A9E  00DD               	movwf	??_thermistor_temp^(0+256)
  2747  0A9F  01DE               	clrf	(??_thermistor_temp^(0+256)+1)
  2748  0AA0  01DF               	clrf	(??_thermistor_temp^(0+256)+2)
  2749  0AA1  01E0               	clrf	(??_thermistor_temp^(0+256)+3)
  2750  0AA2  0860               	movf	(??_thermistor_temp+3)^(0+256),w
  2751  0AA3  00F3               	movwf	___xxtofl@val+3
  2752  0AA4  085F               	movf	(??_thermistor_temp+2)^(0+256),w
  2753  0AA5  00F2               	movwf	___xxtofl@val+2
  2754  0AA6  085E               	movf	(??_thermistor_temp+1)^(0+256),w
  2755  0AA7  00F1               	movwf	___xxtofl@val+1
  2756  0AA8  085D               	movf	??_thermistor_temp^(0+256),w
  2757  0AA9  00F0               	movwf	___xxtofl@val
  2758  0AAA  3001               	movlw	1
  2759  0AAB  3189  21D4  318A   	fcall	___xxtofl
  2760  0AAE  0873               	movf	?___xxtofl+3,w
  2761  0AAF  0020               	movlb	0	; select bank0
  2762  0AB0  00B8               	movwf	___fldiv@a+3
  2763  0AB1  0872               	movf	?___xxtofl+2,w
  2764  0AB2  00B7               	movwf	___fldiv@a+2
  2765  0AB3  0871               	movf	?___xxtofl+1,w
  2766  0AB4  00B6               	movwf	___fldiv@a+1
  2767  0AB5  0870               	movf	?___xxtofl,w
  2768  0AB6  00B5               	movwf	___fldiv@a
  2769  0AB7  3043               	movlw	67
  2770  0AB8  00BC               	movwf	___fldiv@b+3
  2771  0AB9  307F               	movlw	127
  2772  0ABA  00BB               	movwf	___fldiv@b+2
  2773  0ABB  3000               	movlw	0
  2774  0ABC  00BA               	movwf	___fldiv@b+1
  2775  0ABD  3000               	movlw	0
  2776  0ABE  00B9               	movwf	___fldiv@b
  2777  0ABF  318C  2414  318A   	fcall	___fldiv
  2778  0AC2  0020               	movlb	0	; select bank0
  2779  0AC3  0838               	movf	?___fldiv+3,w
  2780  0AC4  00D6               	movwf	___fladd@a+3
  2781  0AC5  0837               	movf	?___fldiv+2,w
  2782  0AC6  00D5               	movwf	___fladd@a+2
  2783  0AC7  0836               	movf	?___fldiv+1,w
  2784  0AC8  00D4               	movwf	___fladd@a+1
  2785  0AC9  0835               	movf	?___fldiv,w
  2786  0ACA  00D3               	movwf	___fladd@a
  2787  0ACB  318D  25C8  318A   	fcall	___fladd
  2788  0ACE  0020               	movlb	0	; select bank0
  2789  0ACF  0852               	movf	?___fladd+3,w
  2790  0AD0  0022               	movlb	2	; select bank2
  2791  0AD1  00E8               	movwf	(_thermistor_temp$1134+3)^(0+256)
  2792  0AD2  0020               	movlb	0	; select bank0
  2793  0AD3  0851               	movf	?___fladd+2,w
  2794  0AD4  0022               	movlb	2	; select bank2
  2795  0AD5  00E7               	movwf	(_thermistor_temp$1134+2)^(0+256)
  2796  0AD6  0020               	movlb	0	; select bank0
  2797  0AD7  0850               	movf	?___fladd+1,w
  2798  0AD8  0022               	movlb	2	; select bank2
  2799  0AD9  00E6               	movwf	(_thermistor_temp$1134+1)^(0+256)
  2800  0ADA  0020               	movlb	0	; select bank0
  2801  0ADB  084F               	movf	?___fladd,w
  2802  0ADC  0022               	movlb	2	; select bank2
  2803  0ADD  00E5               	movwf	_thermistor_temp$1134^(0+256)
  2804                           
  2805                           ;transmitter.c: 114:     float resistance = 10000.0 / ((255.0 / ADRESH) - 1);
  2806  0ADE  0868               	movf	(_thermistor_temp$1134+3)^(0+256),w
  2807  0ADF  0020               	movlb	0	; select bank0
  2808  0AE0  00B8               	movwf	___fldiv@a+3
  2809  0AE1  0022               	movlb	2	; select bank2
  2810  0AE2  0867               	movf	(_thermistor_temp$1134+2)^(0+256),w
  2811  0AE3  0020               	movlb	0	; select bank0
  2812  0AE4  00B7               	movwf	___fldiv@a+2
  2813  0AE5  0022               	movlb	2	; select bank2
  2814  0AE6  0866               	movf	(_thermistor_temp$1134+1)^(0+256),w
  2815  0AE7  0020               	movlb	0	; select bank0
  2816  0AE8  00B6               	movwf	___fldiv@a+1
  2817  0AE9  0022               	movlb	2	; select bank2
  2818  0AEA  0865               	movf	_thermistor_temp$1134^(0+256),w
  2819  0AEB  0020               	movlb	0	; select bank0
  2820  0AEC  00B5               	movwf	___fldiv@a
  2821  0AED  3046               	movlw	70
  2822  0AEE  00BC               	movwf	___fldiv@b+3
  2823  0AEF  301C               	movlw	28
  2824  0AF0  00BB               	movwf	___fldiv@b+2
  2825  0AF1  3040               	movlw	64
  2826  0AF2  00BA               	movwf	___fldiv@b+1
  2827  0AF3  3000               	movlw	0
  2828  0AF4  00B9               	movwf	___fldiv@b
  2829  0AF5  318C  2414  318A   	fcall	___fldiv
  2830  0AF8  0020               	movlb	0	; select bank0
  2831  0AF9  0838               	movf	?___fldiv+3,w
  2832  0AFA  0022               	movlb	2	; select bank2
  2833  0AFB  00E4               	movwf	(thermistor_temp@resistance+3)^(0+256)
  2834  0AFC  0020               	movlb	0	; select bank0
  2835  0AFD  0837               	movf	?___fldiv+2,w
  2836  0AFE  0022               	movlb	2	; select bank2
  2837  0AFF  00E3               	movwf	(thermistor_temp@resistance+2)^(0+256)
  2838  0B00  0020               	movlb	0	; select bank0
  2839  0B01  0836               	movf	?___fldiv+1,w
  2840  0B02  0022               	movlb	2	; select bank2
  2841  0B03  00E2               	movwf	(thermistor_temp@resistance+1)^(0+256)
  2842  0B04  0020               	movlb	0	; select bank0
  2843  0B05  0835               	movf	?___fldiv,w
  2844  0B06  0022               	movlb	2	; select bank2
  2845  0B07  00E1               	movwf	thermistor_temp@resistance^(0+256)
  2846                           
  2847                           ;transmitter.c: 115:     float temperature = resistance / 10000.0;
  2848  0B08  3046               	movlw	70
  2849  0B09  0020               	movlb	0	; select bank0
  2850  0B0A  00B8               	movwf	___fldiv@a+3
  2851  0B0B  301C               	movlw	28
  2852  0B0C  00B7               	movwf	___fldiv@a+2
  2853  0B0D  3040               	movlw	64
  2854  0B0E  00B6               	movwf	___fldiv@a+1
  2855  0B0F  3000               	movlw	0
  2856  0B10  00B5               	movwf	___fldiv@a
  2857  0B11  0022               	movlb	2	; select bank2
  2858  0B12  0864               	movf	(thermistor_temp@resistance+3)^(0+256),w
  2859  0B13  0020               	movlb	0	; select bank0
  2860  0B14  00BC               	movwf	___fldiv@b+3
  2861  0B15  0022               	movlb	2	; select bank2
  2862  0B16  0863               	movf	(thermistor_temp@resistance+2)^(0+256),w
  2863  0B17  0020               	movlb	0	; select bank0
  2864  0B18  00BB               	movwf	___fldiv@b+2
  2865  0B19  0022               	movlb	2	; select bank2
  2866  0B1A  0862               	movf	(thermistor_temp@resistance+1)^(0+256),w
  2867  0B1B  0020               	movlb	0	; select bank0
  2868  0B1C  00BA               	movwf	___fldiv@b+1
  2869  0B1D  0022               	movlb	2	; select bank2
  2870  0B1E  0861               	movf	thermistor_temp@resistance^(0+256),w
  2871  0B1F  0020               	movlb	0	; select bank0
  2872  0B20  00B9               	movwf	___fldiv@b
  2873  0B21  318C  2414  318A   	fcall	___fldiv
  2874  0B24  0020               	movlb	0	; select bank0
  2875  0B25  0838               	movf	?___fldiv+3,w
  2876  0B26  0022               	movlb	2	; select bank2
  2877  0B27  00EC               	movwf	(thermistor_temp@temperature+3)^(0+256)
  2878  0B28  0020               	movlb	0	; select bank0
  2879  0B29  0837               	movf	?___fldiv+2,w
  2880  0B2A  0022               	movlb	2	; select bank2
  2881  0B2B  00EB               	movwf	(thermistor_temp@temperature+2)^(0+256)
  2882  0B2C  0020               	movlb	0	; select bank0
  2883  0B2D  0836               	movf	?___fldiv+1,w
  2884  0B2E  0022               	movlb	2	; select bank2
  2885  0B2F  00EA               	movwf	(thermistor_temp@temperature+1)^(0+256)
  2886  0B30  0020               	movlb	0	; select bank0
  2887  0B31  0835               	movf	?___fldiv,w
  2888  0B32  0022               	movlb	2	; select bank2
  2889  0B33  00E9               	movwf	thermistor_temp@temperature^(0+256)
  2890                           
  2891                           ;transmitter.c: 116:     temperature = logf(temperature);
  2892  0B34  086C               	movf	(thermistor_temp@temperature+3)^(0+256),w
  2893  0B35  0020               	movlb	0	; select bank0
  2894  0B36  00EE               	movwf	logf@x+3
  2895  0B37  0022               	movlb	2	; select bank2
  2896  0B38  086B               	movf	(thermistor_temp@temperature+2)^(0+256),w
  2897  0B39  0020               	movlb	0	; select bank0
  2898  0B3A  00ED               	movwf	logf@x+2
  2899  0B3B  0022               	movlb	2	; select bank2
  2900  0B3C  086A               	movf	(thermistor_temp@temperature+1)^(0+256),w
  2901  0B3D  0020               	movlb	0	; select bank0
  2902  0B3E  00EC               	movwf	logf@x+1
  2903  0B3F  0022               	movlb	2	; select bank2
  2904  0B40  0869               	movf	thermistor_temp@temperature^(0+256),w
  2905  0B41  0020               	movlb	0	; select bank0
  2906  0B42  00EB               	movwf	logf@x
  2907  0B43  3182  229D  318A   	fcall	_logf
  2908  0B46  0020               	movlb	0	; select bank0
  2909  0B47  086E               	movf	?_logf+3,w
  2910  0B48  0022               	movlb	2	; select bank2
  2911  0B49  00EC               	movwf	(thermistor_temp@temperature+3)^(0+256)
  2912  0B4A  0020               	movlb	0	; select bank0
  2913  0B4B  086D               	movf	?_logf+2,w
  2914  0B4C  0022               	movlb	2	; select bank2
  2915  0B4D  00EB               	movwf	(thermistor_temp@temperature+2)^(0+256)
  2916  0B4E  0020               	movlb	0	; select bank0
  2917  0B4F  086C               	movf	?_logf+1,w
  2918  0B50  0022               	movlb	2	; select bank2
  2919  0B51  00EA               	movwf	(thermistor_temp@temperature+1)^(0+256)
  2920  0B52  0020               	movlb	0	; select bank0
  2921  0B53  086B               	movf	?_logf,w
  2922  0B54  0022               	movlb	2	; select bank2
  2923  0B55  00E9               	movwf	thermistor_temp@temperature^(0+256)
  2924                           
  2925                           ;transmitter.c: 117:     temperature /= 3950.0;
  2926  0B56  3045               	movlw	69
  2927  0B57  0020               	movlb	0	; select bank0
  2928  0B58  00B8               	movwf	___fldiv@a+3
  2929  0B59  3076               	movlw	118
  2930  0B5A  00B7               	movwf	___fldiv@a+2
  2931  0B5B  30E0               	movlw	224
  2932  0B5C  00B6               	movwf	___fldiv@a+1
  2933  0B5D  3000               	movlw	0
  2934  0B5E  00B5               	movwf	___fldiv@a
  2935  0B5F  0022               	movlb	2	; select bank2
  2936  0B60  086C               	movf	(thermistor_temp@temperature+3)^(0+256),w
  2937  0B61  0020               	movlb	0	; select bank0
  2938  0B62  00BC               	movwf	___fldiv@b+3
  2939  0B63  0022               	movlb	2	; select bank2
  2940  0B64  086B               	movf	(thermistor_temp@temperature+2)^(0+256),w
  2941  0B65  0020               	movlb	0	; select bank0
  2942  0B66  00BB               	movwf	___fldiv@b+2
  2943  0B67  0022               	movlb	2	; select bank2
  2944  0B68  086A               	movf	(thermistor_temp@temperature+1)^(0+256),w
  2945  0B69  0020               	movlb	0	; select bank0
  2946  0B6A  00BA               	movwf	___fldiv@b+1
  2947  0B6B  0022               	movlb	2	; select bank2
  2948  0B6C  0869               	movf	thermistor_temp@temperature^(0+256),w
  2949  0B6D  0020               	movlb	0	; select bank0
  2950  0B6E  00B9               	movwf	___fldiv@b
  2951  0B6F  318C  2414  318A   	fcall	___fldiv
  2952  0B72  0020               	movlb	0	; select bank0
  2953  0B73  0838               	movf	?___fldiv+3,w
  2954  0B74  0022               	movlb	2	; select bank2
  2955  0B75  00EC               	movwf	(thermistor_temp@temperature+3)^(0+256)
  2956  0B76  0020               	movlb	0	; select bank0
  2957  0B77  0837               	movf	?___fldiv+2,w
  2958  0B78  0022               	movlb	2	; select bank2
  2959  0B79  00EB               	movwf	(thermistor_temp@temperature+2)^(0+256)
  2960  0B7A  0020               	movlb	0	; select bank0
  2961  0B7B  0836               	movf	?___fldiv+1,w
  2962  0B7C  0022               	movlb	2	; select bank2
  2963  0B7D  00EA               	movwf	(thermistor_temp@temperature+1)^(0+256)
  2964  0B7E  0020               	movlb	0	; select bank0
  2965  0B7F  0835               	movf	?___fldiv,w
  2966  0B80  0022               	movlb	2	; select bank2
  2967  0B81  00E9               	movwf	thermistor_temp@temperature^(0+256)
  2968                           
  2969                           ;transmitter.c: 118:     temperature += 1.0 / (25.0 + 273.15);
  2970  0B82  303B               	movlw	59
  2971  0B83  0020               	movlb	0	; select bank0
  2972  0B84  00D2               	movwf	___fladd@b+3
  2973  0B85  305B               	movlw	91
  2974  0B86  00D1               	movwf	___fladd@b+2
  2975  0B87  30CF               	movlw	207
  2976  0B88  00D0               	movwf	___fladd@b+1
  2977  0B89  300F               	movlw	15
  2978  0B8A  00CF               	movwf	___fladd@b
  2979  0B8B  0022               	movlb	2	; select bank2
  2980  0B8C  086C               	movf	(thermistor_temp@temperature+3)^(0+256),w
  2981  0B8D  0020               	movlb	0	; select bank0
  2982  0B8E  00D6               	movwf	___fladd@a+3
  2983  0B8F  0022               	movlb	2	; select bank2
  2984  0B90  086B               	movf	(thermistor_temp@temperature+2)^(0+256),w
  2985  0B91  0020               	movlb	0	; select bank0
  2986  0B92  00D5               	movwf	___fladd@a+2
  2987  0B93  0022               	movlb	2	; select bank2
  2988  0B94  086A               	movf	(thermistor_temp@temperature+1)^(0+256),w
  2989  0B95  0020               	movlb	0	; select bank0
  2990  0B96  00D4               	movwf	___fladd@a+1
  2991  0B97  0022               	movlb	2	; select bank2
  2992  0B98  0869               	movf	thermistor_temp@temperature^(0+256),w
  2993  0B99  0020               	movlb	0	; select bank0
  2994  0B9A  00D3               	movwf	___fladd@a
  2995  0B9B  318D  25C8  318A   	fcall	___fladd
  2996  0B9E  0020               	movlb	0	; select bank0
  2997  0B9F  0852               	movf	?___fladd+3,w
  2998  0BA0  0022               	movlb	2	; select bank2
  2999  0BA1  00EC               	movwf	(thermistor_temp@temperature+3)^(0+256)
  3000  0BA2  0020               	movlb	0	; select bank0
  3001  0BA3  0851               	movf	?___fladd+2,w
  3002  0BA4  0022               	movlb	2	; select bank2
  3003  0BA5  00EB               	movwf	(thermistor_temp@temperature+2)^(0+256)
  3004  0BA6  0020               	movlb	0	; select bank0
  3005  0BA7  0850               	movf	?___fladd+1,w
  3006  0BA8  0022               	movlb	2	; select bank2
  3007  0BA9  00EA               	movwf	(thermistor_temp@temperature+1)^(0+256)
  3008  0BAA  0020               	movlb	0	; select bank0
  3009  0BAB  084F               	movf	?___fladd,w
  3010  0BAC  0022               	movlb	2	; select bank2
  3011  0BAD  00E9               	movwf	thermistor_temp@temperature^(0+256)
  3012                           
  3013                           ;transmitter.c: 119:     temperature = 1.0 / temperature;
  3014  0BAE  086C               	movf	(thermistor_temp@temperature+3)^(0+256),w
  3015  0BAF  0020               	movlb	0	; select bank0
  3016  0BB0  00B8               	movwf	___fldiv@a+3
  3017  0BB1  0022               	movlb	2	; select bank2
  3018  0BB2  086B               	movf	(thermistor_temp@temperature+2)^(0+256),w
  3019  0BB3  0020               	movlb	0	; select bank0
  3020  0BB4  00B7               	movwf	___fldiv@a+2
  3021  0BB5  0022               	movlb	2	; select bank2
  3022  0BB6  086A               	movf	(thermistor_temp@temperature+1)^(0+256),w
  3023  0BB7  0020               	movlb	0	; select bank0
  3024  0BB8  00B6               	movwf	___fldiv@a+1
  3025  0BB9  0022               	movlb	2	; select bank2
  3026  0BBA  0869               	movf	thermistor_temp@temperature^(0+256),w
  3027  0BBB  0020               	movlb	0	; select bank0
  3028  0BBC  00B5               	movwf	___fldiv@a
  3029  0BBD  303F               	movlw	63
  3030  0BBE  00BC               	movwf	___fldiv@b+3
  3031  0BBF  3080               	movlw	128
  3032  0BC0  00BB               	movwf	___fldiv@b+2
  3033  0BC1  3000               	movlw	0
  3034  0BC2  00BA               	movwf	___fldiv@b+1
  3035  0BC3  3000               	movlw	0
  3036  0BC4  00B9               	movwf	___fldiv@b
  3037  0BC5  318C  2414  318A   	fcall	___fldiv
  3038  0BC8  0020               	movlb	0	; select bank0
  3039  0BC9  0838               	movf	?___fldiv+3,w
  3040  0BCA  0022               	movlb	2	; select bank2
  3041  0BCB  00EC               	movwf	(thermistor_temp@temperature+3)^(0+256)
  3042  0BCC  0020               	movlb	0	; select bank0
  3043  0BCD  0837               	movf	?___fldiv+2,w
  3044  0BCE  0022               	movlb	2	; select bank2
  3045  0BCF  00EB               	movwf	(thermistor_temp@temperature+2)^(0+256)
  3046  0BD0  0020               	movlb	0	; select bank0
  3047  0BD1  0836               	movf	?___fldiv+1,w
  3048  0BD2  0022               	movlb	2	; select bank2
  3049  0BD3  00EA               	movwf	(thermistor_temp@temperature+1)^(0+256)
  3050  0BD4  0020               	movlb	0	; select bank0
  3051  0BD5  0835               	movf	?___fldiv,w
  3052  0BD6  0022               	movlb	2	; select bank2
  3053  0BD7  00E9               	movwf	thermistor_temp@temperature^(0+256)
  3054                           
  3055                           ;transmitter.c: 120:     temperature -= 273.15;
  3056  0BD8  3043               	movlw	67
  3057  0BD9  0020               	movlb	0	; select bank0
  3058  0BDA  00E6               	movwf	___flsub@a+3
  3059  0BDB  3088               	movlw	136
  3060  0BDC  00E5               	movwf	___flsub@a+2
  3061  0BDD  3093               	movlw	147
  3062  0BDE  00E4               	movwf	___flsub@a+1
  3063  0BDF  3033               	movlw	51
  3064  0BE0  00E3               	movwf	___flsub@a
  3065  0BE1  0022               	movlb	2	; select bank2
  3066  0BE2  086C               	movf	(thermistor_temp@temperature+3)^(0+256),w
  3067  0BE3  0020               	movlb	0	; select bank0
  3068  0BE4  00EA               	movwf	___flsub@b+3
  3069  0BE5  0022               	movlb	2	; select bank2
  3070  0BE6  086B               	movf	(thermistor_temp@temperature+2)^(0+256),w
  3071  0BE7  0020               	movlb	0	; select bank0
  3072  0BE8  00E9               	movwf	___flsub@b+2
  3073  0BE9  0022               	movlb	2	; select bank2
  3074  0BEA  086A               	movf	(thermistor_temp@temperature+1)^(0+256),w
  3075  0BEB  0020               	movlb	0	; select bank0
  3076  0BEC  00E8               	movwf	___flsub@b+1
  3077  0BED  0022               	movlb	2	; select bank2
  3078  0BEE  0869               	movf	thermistor_temp@temperature^(0+256),w
  3079  0BEF  0020               	movlb	0	; select bank0
  3080  0BF0  00E7               	movwf	___flsub@b
  3081  0BF1  3196  26B8  318A   	fcall	___flsub
  3082  0BF4  0020               	movlb	0	; select bank0
  3083  0BF5  0866               	movf	?___flsub+3,w
  3084  0BF6  0022               	movlb	2	; select bank2
  3085  0BF7  00EC               	movwf	(thermistor_temp@temperature+3)^(0+256)
  3086  0BF8  0020               	movlb	0	; select bank0
  3087  0BF9  0865               	movf	?___flsub+2,w
  3088  0BFA  0022               	movlb	2	; select bank2
  3089  0BFB  00EB               	movwf	(thermistor_temp@temperature+2)^(0+256)
  3090  0BFC  0020               	movlb	0	; select bank0
  3091  0BFD  0864               	movf	?___flsub+1,w
  3092  0BFE  0022               	movlb	2	; select bank2
  3093  0BFF  00EA               	movwf	(thermistor_temp@temperature+1)^(0+256)
  3094  0C00  0020               	movlb	0	; select bank0
  3095  0C01  0863               	movf	?___flsub,w
  3096  0C02  0022               	movlb	2	; select bank2
  3097  0C03  00E9               	movwf	thermistor_temp@temperature^(0+256)
  3098  0C04                     l2633:
  3099                           
  3100                           ;transmitter.c: 121:     return temperature;
  3101  0C04  086C               	movf	(thermistor_temp@temperature+3)^(0+256),w
  3102  0C05  0021               	movlb	1	; select bank1
  3103  0C06  00ED               	movwf	(?_thermistor_temp+3)^(0+128)
  3104  0C07  0022               	movlb	2	; select bank2
  3105  0C08  086B               	movf	(thermistor_temp@temperature+2)^(0+256),w
  3106  0C09  0021               	movlb	1	; select bank1
  3107  0C0A  00EC               	movwf	(?_thermistor_temp+2)^(0+128)
  3108  0C0B  0022               	movlb	2	; select bank2
  3109  0C0C  086A               	movf	(thermistor_temp@temperature+1)^(0+256),w
  3110  0C0D  0021               	movlb	1	; select bank1
  3111  0C0E  00EB               	movwf	(?_thermistor_temp+1)^(0+128)
  3112  0C0F  0022               	movlb	2	; select bank2
  3113  0C10  0869               	movf	thermistor_temp@temperature^(0+256),w
  3114  0C11  0021               	movlb	1	; select bank1
  3115  0C12  00EA               	movwf	?_thermistor_temp^(0+128)
  3116  0C13                     l117:
  3117  0C13  0008               	return
  3118  0C14                     __end_of_thermistor_temp:
  3119                           
  3120                           	psect	text2
  3121  029D                     __ptext2:	
  3122 ;; *************** function _logf *****************
  3123 ;; Defined at:
  3124 ;;		line 29 in file "C:\Program Files (x86)\MPLAB X\Compilers\XC8\pic\sources\c99\common\logf.c"
  3125 ;; Parameters:    Size  Location     Type
  3126 ;;  x               4   75[BANK0 ] float 
  3127 ;; Auto vars:     Size  Location     Type
  3128 ;;  ix              4   70[BANK1 ] unsigned long 
  3129 ;;  f               4   66[BANK1 ] float 
  3130 ;;  u               4   62[BANK1 ] struct .
  3131 ;;  w               4   54[BANK1 ] float 
  3132 ;;  z               4   50[BANK1 ] float 
  3133 ;;  s               4   46[BANK1 ] float 
  3134 ;;  dk              4   42[BANK1 ] float 
  3135 ;;  hfsq            4   38[BANK1 ] float 
  3136 ;;  t2              4   16[BANK1 ] float 
  3137 ;;  t1              4   12[BANK1 ] float 
  3138 ;;  R               4    8[BANK1 ] float 
  3139 ;;  k               2   36[BANK1 ] int 
  3140 ;; Return value:  Size  Location     Type
  3141 ;;                  4   75[BANK0 ] float 
  3142 ;; Registers used:
  3143 ;;		wreg, status,2, status,0, pclath, cstack
  3144 ;; Tracked objects:
  3145 ;;		On entry : 0/0
  3146 ;;		On exit  : 0/0
  3147 ;;		Unchanged: 0/0
  3148 ;; Data sizes:     COMMON   BANK0   BANK1   BANK2   BANK3   BANK4   BANK5   BANK6   BANK7   BANK8   BANK9  BANK10  BANK1
      +1  BANK12
  3149 ;;      Params:         0       4       0       0       0       0       0       0       0       0       0       0       
      +0       0
  3150 ;;      Locals:         0       0      66       0       0       0       0       0       0       0       0       0       
      +0       0
  3151 ;;      Temps:          0       0       8       0       0       0       0       0       0       0       0       0       
      +0       0
  3152 ;;      Totals:         0       4      74       0       0       0       0       0       0       0       0       0       
      +0       0
  3153 ;;Total ram usage:       78 bytes
  3154 ;; Hardware stack levels used: 1
  3155 ;; Hardware stack levels required when called: 2
  3156 ;; This function calls:
  3157 ;;		___fladd
  3158 ;;		___fldiv
  3159 ;;		___flmul
  3160 ;;		___flsub
  3161 ;;		___xxtofl
  3162 ;; This function is called by:
  3163 ;;		_thermistor_temp
  3164 ;; This function uses a non-reentrant model
  3165 ;;
  3166                           
  3167                           
  3168                           ;psect for function _logf
  3169  029D                     _logf:
  3170  029D                     l2475:	
  3171                           ;incstack = 0
  3172                           ; Regs used in _logf: [wreg+status,2+status,0+pclath+cstack]
  3173                           
  3174  029D  0022               	movlb	2	; select bank2
  3175  029E  0843               	movf	(logf@F472+3)^(0+256),w
  3176  029F  0021               	movlb	1	; select bank1
  3177  02A0  00E1               	movwf	(logf@u+3)^(0+128)
  3178  02A1  0022               	movlb	2	; select bank2
  3179  02A2  0842               	movf	(logf@F472+2)^(0+256),w
  3180  02A3  0021               	movlb	1	; select bank1
  3181  02A4  00E0               	movwf	(logf@u+2)^(0+128)
  3182  02A5  0022               	movlb	2	; select bank2
  3183  02A6  0841               	movf	(logf@F472+1)^(0+256),w
  3184  02A7  0021               	movlb	1	; select bank1
  3185  02A8  00DF               	movwf	(logf@u+1)^(0+128)
  3186  02A9  0022               	movlb	2	; select bank2
  3187  02AA  0840               	movf	logf@F472^(0+256),w
  3188  02AB  0021               	movlb	1	; select bank1
  3189  02AC  00DE               	movwf	logf@u^(0+128)
  3190  02AD  0020               	movlb	0	; select bank0
  3191  02AE  086E               	movf	logf@x+3,w
  3192  02AF  0021               	movlb	1	; select bank1
  3193  02B0  00E1               	movwf	(logf@u+3)^(0+128)
  3194  02B1  0020               	movlb	0	; select bank0
  3195  02B2  086D               	movf	logf@x+2,w
  3196  02B3  0021               	movlb	1	; select bank1
  3197  02B4  00E0               	movwf	(logf@u+2)^(0+128)
  3198  02B5  0020               	movlb	0	; select bank0
  3199  02B6  086C               	movf	logf@x+1,w
  3200  02B7  0021               	movlb	1	; select bank1
  3201  02B8  00DF               	movwf	(logf@u+1)^(0+128)
  3202  02B9  0020               	movlb	0	; select bank0
  3203  02BA  086B               	movf	logf@x,w
  3204  02BB  0021               	movlb	1	; select bank1
  3205  02BC  00DE               	movwf	logf@u^(0+128)
  3206  02BD  0861               	movf	(logf@u+3)^(0+128),w
  3207  02BE  00E9               	movwf	(logf@ix+3)^(0+128)
  3208  02BF  0860               	movf	(logf@u+2)^(0+128),w
  3209  02C0  00E8               	movwf	(logf@ix+2)^(0+128)
  3210  02C1  085F               	movf	(logf@u+1)^(0+128),w
  3211  02C2  00E7               	movwf	(logf@ix+1)^(0+128)
  3212  02C3  085E               	movf	logf@u^(0+128),w
  3213  02C4  00E6               	movwf	logf@ix^(0+128)
  3214  02C5                     l2477:
  3215  02C5  01C4               	clrf	logf@k^(0+128)
  3216  02C6  01C5               	clrf	(logf@k+1)^(0+128)
  3217  02C7                     l2479:
  3218  02C7  0869               	movf	(logf@ix+3)^(0+128),w
  3219  02C8  1D03               	btfss	3,2
  3220  02C9  2AD0               	goto	u2690
  3221  02CA  3080               	movlw	128
  3222  02CB  0268               	subwf	(logf@ix+2)^(0+128),w
  3223  02CC  1C03               	btfss	3,0
  3224  02CD  2ACF               	goto	u2691
  3225  02CE  2AD0               	goto	u2690
  3226  02CF                     u2691:
  3227  02CF  2AE8               	goto	l2483
  3228  02D0                     u2690:
  3229  02D0                     l2481:
  3230  02D0  0021               	movlb	1	; select bank1
  3231  02D1  0866               	movf	logf@ix^(0+128),w
  3232  02D2  00A0               	movwf	??_logf^(0+128)
  3233  02D3  0867               	movf	(logf@ix+1)^(0+128),w
  3234  02D4  00A1               	movwf	(??_logf^(0+128)+1)
  3235  02D5  0868               	movf	(logf@ix+2)^(0+128),w
  3236  02D6  00A2               	movwf	(??_logf^(0+128)+2)
  3237  02D7  0869               	movf	(logf@ix+3)^(0+128),w
  3238  02D8  00A3               	movwf	(??_logf^(0+128)+3)
  3239  02D9  301F               	movlw	31
  3240  02DA                     u2705:
  3241  02DA  36A3               	lsrf	(??_logf^(0+128)+3),f
  3242  02DB  0CA2               	rrf	(??_logf^(0+128)+2),f
  3243  02DC  0CA1               	rrf	(??_logf^(0+128)+1),f
  3244  02DD  0CA0               	rrf	??_logf^(0+128),f
  3245  02DE                     u2700:
  3246  02DE  0B89               	decfsz	9,f
  3247  02DF  2ADA               	goto	u2705
  3248  02E0  0823               	movf	(??_logf+3)^(0+128),w
  3249  02E1  0422               	iorwf	(??_logf+2)^(0+128),w
  3250  02E2  0421               	iorwf	(??_logf+1)^(0+128),w
  3251  02E3  0420               	iorwf	??_logf^(0+128),w
  3252  02E4  1903               	skipnz
  3253  02E5  2AE7               	goto	u2711
  3254  02E6  2AE8               	goto	u2710
  3255  02E7                     u2711:
  3256  02E7  2BB9               	goto	l2505
  3257  02E8                     u2710:
  3258  02E8                     l2483:
  3259  02E8  0021               	movlb	1	; select bank1
  3260  02E9  0866               	movf	logf@ix^(0+128),w
  3261  02EA  00A0               	movwf	??_logf^(0+128)
  3262  02EB  0867               	movf	(logf@ix+1)^(0+128),w
  3263  02EC  00A1               	movwf	(??_logf^(0+128)+1)
  3264  02ED  0868               	movf	(logf@ix+2)^(0+128),w
  3265  02EE  00A2               	movwf	(??_logf^(0+128)+2)
  3266  02EF  0869               	movf	(logf@ix+3)^(0+128),w
  3267  02F0  00A3               	movwf	(??_logf^(0+128)+3)
  3268  02F1  3001               	movlw	1
  3269  02F2                     u2725:
  3270  02F2  35A0               	lslf	??_logf^(0+128),f
  3271  02F3  0DA1               	rlf	(??_logf^(0+128)+1),f
  3272  02F4  0DA2               	rlf	(??_logf^(0+128)+2),f
  3273  02F5  0DA3               	rlf	(??_logf^(0+128)+3),f
  3274  02F6                     u2720:
  3275  02F6  0B89               	decfsz	9,f
  3276  02F7  2AF2               	goto	u2725
  3277  02F8  0823               	movf	(??_logf+3)^(0+128),w
  3278  02F9  0422               	iorwf	(??_logf+2)^(0+128),w
  3279  02FA  0421               	iorwf	(??_logf+1)^(0+128),w
  3280  02FB  0420               	iorwf	??_logf^(0+128),w
  3281  02FC  1D03               	skipz
  3282  02FD  2AFF               	goto	u2731
  3283  02FE  2B00               	goto	u2730
  3284  02FF                     u2731:
  3285  02FF  2B32               	goto	l2489
  3286  0300                     u2730:
  3287  0300                     l2485:
  3288  0300  0020               	movlb	0	; select bank0
  3289  0301  086E               	movf	logf@x+3,w
  3290  0302  00A3               	movwf	___flmul@b+3
  3291  0303  086D               	movf	logf@x+2,w
  3292  0304  00A2               	movwf	___flmul@b+2
  3293  0305  086C               	movf	logf@x+1,w
  3294  0306  00A1               	movwf	___flmul@b+1
  3295  0307  086B               	movf	logf@x,w
  3296  0308  00A0               	movwf	___flmul@b
  3297  0309  086E               	movf	logf@x+3,w
  3298  030A  00A7               	movwf	___flmul@a+3
  3299  030B  086D               	movf	logf@x+2,w
  3300  030C  00A6               	movwf	___flmul@a+2
  3301  030D  086C               	movf	logf@x+1,w
  3302  030E  00A5               	movwf	___flmul@a+1
  3303  030F  086B               	movf	logf@x,w
  3304  0310  00A4               	movwf	___flmul@a
  3305  0311  3180  2046  3182   	fcall	___flmul
  3306  0314  0020               	movlb	0	; select bank0
  3307  0315  0823               	movf	?___flmul+3,w
  3308  0316  00B8               	movwf	___fldiv@a+3
  3309  0317  0822               	movf	?___flmul+2,w
  3310  0318  00B7               	movwf	___fldiv@a+2
  3311  0319  0821               	movf	?___flmul+1,w
  3312  031A  00B6               	movwf	___fldiv@a+1
  3313  031B  0820               	movf	?___flmul,w
  3314  031C  00B5               	movwf	___fldiv@a
  3315  031D  30BF               	movlw	191
  3316  031E  00BC               	movwf	___fldiv@b+3
  3317  031F  3080               	movlw	128
  3318  0320  00BB               	movwf	___fldiv@b+2
  3319  0321  3000               	movlw	0
  3320  0322  00BA               	movwf	___fldiv@b+1
  3321  0323  3000               	movlw	0
  3322  0324  00B9               	movwf	___fldiv@b
  3323  0325  318C  2414  3182   	fcall	___fldiv
  3324  0328  0020               	movlb	0	; select bank0
  3325  0329  0838               	movf	?___fldiv+3,w
  3326  032A  00EE               	movwf	?_logf+3
  3327  032B  0837               	movf	?___fldiv+2,w
  3328  032C  00ED               	movwf	?_logf+2
  3329  032D  0836               	movf	?___fldiv+1,w
  3330  032E  00EC               	movwf	?_logf+1
  3331  032F  0835               	movf	?___fldiv,w
  3332  0330  00EB               	movwf	?_logf
  3333  0331  2FC9               	goto	l848
  3334  0332                     l2489:
  3335  0332  0866               	movf	logf@ix^(0+128),w
  3336  0333  00A0               	movwf	??_logf^(0+128)
  3337  0334  0867               	movf	(logf@ix+1)^(0+128),w
  3338  0335  00A1               	movwf	(??_logf^(0+128)+1)
  3339  0336  0868               	movf	(logf@ix+2)^(0+128),w
  3340  0337  00A2               	movwf	(??_logf^(0+128)+2)
  3341  0338  0869               	movf	(logf@ix+3)^(0+128),w
  3342  0339  00A3               	movwf	(??_logf^(0+128)+3)
  3343  033A  301F               	movlw	31
  3344  033B                     u2745:
  3345  033B  36A3               	lsrf	(??_logf^(0+128)+3),f
  3346  033C  0CA2               	rrf	(??_logf^(0+128)+2),f
  3347  033D  0CA1               	rrf	(??_logf^(0+128)+1),f
  3348  033E  0CA0               	rrf	??_logf^(0+128),f
  3349  033F                     u2740:
  3350  033F  0B89               	decfsz	9,f
  3351  0340  2B3B               	goto	u2745
  3352  0341  0823               	movf	(??_logf+3)^(0+128),w
  3353  0342  0422               	iorwf	(??_logf+2)^(0+128),w
  3354  0343  0421               	iorwf	(??_logf+1)^(0+128),w
  3355  0344  0420               	iorwf	??_logf^(0+128),w
  3356  0345  1903               	skipnz
  3357  0346  2B48               	goto	u2751
  3358  0347  2B49               	goto	u2750
  3359  0348                     u2751:
  3360  0348  2B80               	goto	l2497
  3361  0349                     u2750:
  3362  0349                     l2491:
  3363  0349  3021               	movlw	33
  3364  034A  0022               	movlb	2	; select bank2
  3365  034B  00C4               	movwf	_errno^(0+256)
  3366  034C  3000               	movlw	0
  3367  034D  00C5               	movwf	(_errno^(0+256)+1)
  3368  034E                     l2493:
  3369  034E  3000               	movlw	0
  3370  034F  0020               	movlb	0	; select bank0
  3371  0350  00B8               	movwf	___fldiv@a+3
  3372  0351  3000               	movlw	0
  3373  0352  00B7               	movwf	___fldiv@a+2
  3374  0353  3000               	movlw	0
  3375  0354  00B6               	movwf	___fldiv@a+1
  3376  0355  3000               	movlw	0
  3377  0356  00B5               	movwf	___fldiv@a
  3378  0357  086E               	movf	logf@x+3,w
  3379  0358  00E6               	movwf	___flsub@a+3
  3380  0359  086D               	movf	logf@x+2,w
  3381  035A  00E5               	movwf	___flsub@a+2
  3382  035B  086C               	movf	logf@x+1,w
  3383  035C  00E4               	movwf	___flsub@a+1
  3384  035D  086B               	movf	logf@x,w
  3385  035E  00E3               	movwf	___flsub@a
  3386  035F  086E               	movf	logf@x+3,w
  3387  0360  00EA               	movwf	___flsub@b+3
  3388  0361  086D               	movf	logf@x+2,w
  3389  0362  00E9               	movwf	___flsub@b+2
  3390  0363  086C               	movf	logf@x+1,w
  3391  0364  00E8               	movwf	___flsub@b+1
  3392  0365  086B               	movf	logf@x,w
  3393  0366  00E7               	movwf	___flsub@b
  3394  0367  3196  26B8  3182   	fcall	___flsub
  3395  036A  0020               	movlb	0	; select bank0
  3396  036B  0866               	movf	?___flsub+3,w
  3397  036C  00BC               	movwf	___fldiv@b+3
  3398  036D  0865               	movf	?___flsub+2,w
  3399  036E  00BB               	movwf	___fldiv@b+2
  3400  036F  0864               	movf	?___flsub+1,w
  3401  0370  00BA               	movwf	___fldiv@b+1
  3402  0371  0863               	movf	?___flsub,w
  3403  0372  00B9               	movwf	___fldiv@b
  3404  0373  318C  2414  3182   	fcall	___fldiv
  3405  0376  0020               	movlb	0	; select bank0
  3406  0377  0838               	movf	?___fldiv+3,w
  3407  0378  00EE               	movwf	?_logf+3
  3408  0379  0837               	movf	?___fldiv+2,w
  3409  037A  00ED               	movwf	?_logf+2
  3410  037B  0836               	movf	?___fldiv+1,w
  3411  037C  00EC               	movwf	?_logf+1
  3412  037D  0835               	movf	?___fldiv,w
  3413  037E  00EB               	movwf	?_logf
  3414  037F  2FC9               	goto	l848
  3415  0380                     l2497:
  3416  0380  30E7               	movlw	231
  3417  0381  07C4               	addwf	logf@k^(0+128),f
  3418  0382  30FF               	movlw	255
  3419  0383  3DC5               	addwfc	(logf@k+1)^(0+128),f
  3420  0384                     l2499:
  3421  0384  304C               	movlw	76
  3422  0385  0020               	movlb	0	; select bank0
  3423  0386  00A3               	movwf	___flmul@b+3
  3424  0387  3000               	movlw	0
  3425  0388  00A2               	movwf	___flmul@b+2
  3426  0389  3000               	movlw	0
  3427  038A  00A1               	movwf	___flmul@b+1
  3428  038B  3000               	movlw	0
  3429  038C  00A0               	movwf	___flmul@b
  3430  038D  086E               	movf	logf@x+3,w
  3431  038E  00A7               	movwf	___flmul@a+3
  3432  038F  086D               	movf	logf@x+2,w
  3433  0390  00A6               	movwf	___flmul@a+2
  3434  0391  086C               	movf	logf@x+1,w
  3435  0392  00A5               	movwf	___flmul@a+1
  3436  0393  086B               	movf	logf@x,w
  3437  0394  00A4               	movwf	___flmul@a
  3438  0395  3180  2046  3182   	fcall	___flmul
  3439  0398  0020               	movlb	0	; select bank0
  3440  0399  0823               	movf	?___flmul+3,w
  3441  039A  00EE               	movwf	logf@x+3
  3442  039B  0822               	movf	?___flmul+2,w
  3443  039C  00ED               	movwf	logf@x+2
  3444  039D  0821               	movf	?___flmul+1,w
  3445  039E  00EC               	movwf	logf@x+1
  3446  039F  0820               	movf	?___flmul,w
  3447  03A0  00EB               	movwf	logf@x
  3448  03A1                     l2501:
  3449  03A1  086E               	movf	logf@x+3,w
  3450  03A2  0021               	movlb	1	; select bank1
  3451  03A3  00E1               	movwf	(logf@u+3)^(0+128)
  3452  03A4  0020               	movlb	0	; select bank0
  3453  03A5  086D               	movf	logf@x+2,w
  3454  03A6  0021               	movlb	1	; select bank1
  3455  03A7  00E0               	movwf	(logf@u+2)^(0+128)
  3456  03A8  0020               	movlb	0	; select bank0
  3457  03A9  086C               	movf	logf@x+1,w
  3458  03AA  0021               	movlb	1	; select bank1
  3459  03AB  00DF               	movwf	(logf@u+1)^(0+128)
  3460  03AC  0020               	movlb	0	; select bank0
  3461  03AD  086B               	movf	logf@x,w
  3462  03AE  0021               	movlb	1	; select bank1
  3463  03AF  00DE               	movwf	logf@u^(0+128)
  3464  03B0                     l2503:
  3465  03B0  0861               	movf	(logf@u+3)^(0+128),w
  3466  03B1  00E9               	movwf	(logf@ix+3)^(0+128)
  3467  03B2  0860               	movf	(logf@u+2)^(0+128),w
  3468  03B3  00E8               	movwf	(logf@ix+2)^(0+128)
  3469  03B4  085F               	movf	(logf@u+1)^(0+128),w
  3470  03B5  00E7               	movwf	(logf@ix+1)^(0+128)
  3471  03B6  085E               	movf	logf@u^(0+128),w
  3472  03B7  00E6               	movwf	logf@ix^(0+128)
  3473  03B8  2BD8               	goto	l2517
  3474  03B9                     l2505:
  3475  03B9  3080               	movlw	128
  3476  03BA  0268               	subwf	(logf@ix+2)^(0+128),w
  3477  03BB  307F               	movlw	127
  3478  03BC  3B69               	subwfb	(logf@ix+3)^(0+128),w
  3479  03BD  1C03               	btfss	3,0
  3480  03BE  2BC0               	goto	u2761
  3481  03BF  2BC1               	goto	u2760
  3482  03C0                     u2761:
  3483  03C0  2BC2               	goto	l2511
  3484  03C1                     u2760:
  3485  03C1                     l2507:
  3486  03C1  2FC9               	goto	l848
  3487  03C2                     l2511:
  3488  03C2  3080               	movlw	128
  3489  03C3  0021               	movlb	1	; select bank1
  3490  03C4  0668               	xorwf	(logf@ix+2)^(0+128),w
  3491  03C5  303F               	movlw	63
  3492  03C6  1903               	skipnz
  3493  03C7  0669               	xorwf	(logf@ix+3)^(0+128),w
  3494  03C8  0466               	iorwf	logf@ix^(0+128),w
  3495  03C9  0467               	iorwf	(logf@ix+1)^(0+128),w
  3496  03CA  1D03               	btfss	3,2
  3497  03CB  2BCD               	goto	u2771
  3498  03CC  2BCE               	goto	u2770
  3499  03CD                     u2771:
  3500  03CD  2BD8               	goto	l2517
  3501  03CE                     u2770:
  3502  03CE                     l2513:
  3503  03CE  3000               	movlw	0
  3504  03CF  0020               	movlb	0	; select bank0
  3505  03D0  00EE               	movwf	?_logf+3
  3506  03D1  3000               	movlw	0
  3507  03D2  00ED               	movwf	?_logf+2
  3508  03D3  3000               	movlw	0
  3509  03D4  00EC               	movwf	?_logf+1
  3510  03D5  3000               	movlw	0
  3511  03D6  00EB               	movwf	?_logf
  3512  03D7  2FC9               	goto	l848
  3513  03D8                     l2517:
  3514  03D8  300D               	movlw	13
  3515  03D9  0021               	movlb	1	; select bank1
  3516  03DA  07E6               	addwf	logf@ix^(0+128),f
  3517  03DB  30FB               	movlw	251
  3518  03DC  3DE7               	addwfc	(logf@ix+1)^(0+128),f
  3519  03DD  304A               	movlw	74
  3520  03DE  3DE8               	addwfc	(logf@ix+2)^(0+128),f
  3521  03DF  3000               	movlw	0
  3522  03E0  3DE9               	addwfc	(logf@ix+3)^(0+128),f
  3523  03E1                     l2519:
  3524  03E1  0866               	movf	logf@ix^(0+128),w
  3525  03E2  00A0               	movwf	??_logf^(0+128)
  3526  03E3  0867               	movf	(logf@ix+1)^(0+128),w
  3527  03E4  00A1               	movwf	(??_logf^(0+128)+1)
  3528  03E5  0868               	movf	(logf@ix+2)^(0+128),w
  3529  03E6  00A2               	movwf	(??_logf^(0+128)+2)
  3530  03E7  0869               	movf	(logf@ix+3)^(0+128),w
  3531  03E8  00A3               	movwf	(??_logf^(0+128)+3)
  3532  03E9  3017               	movlw	23
  3533  03EA                     u2785:
  3534  03EA  36A3               	lsrf	(??_logf^(0+128)+3),f
  3535  03EB  0CA2               	rrf	(??_logf^(0+128)+2),f
  3536  03EC  0CA1               	rrf	(??_logf^(0+128)+1),f
  3537  03ED  0CA0               	rrf	??_logf^(0+128),f
  3538  03EE                     u2780:
  3539  03EE  0B89               	decfsz	9,f
  3540  03EF  2BEA               	goto	u2785
  3541  03F0  0820               	movf	??_logf^(0+128),w
  3542  03F1  3E81               	addlw	129
  3543  03F2  00A4               	movwf	(??_logf+4)^(0+128)
  3544  03F3  30FF               	movlw	255
  3545  03F4  3D21               	addwfc	(??_logf+1)^(0+128),w
  3546  03F5  00A5               	movwf	(??_logf+5)^(0+128)
  3547  03F6  0824               	movf	(??_logf+4)^(0+128),w
  3548  03F7  07C4               	addwf	logf@k^(0+128),f
  3549  03F8  0825               	movf	(??_logf+5)^(0+128),w
  3550  03F9  3DC5               	addwfc	(logf@k+1)^(0+128),f
  3551  03FA                     l2521:
  3552  03FA  30F3               	movlw	243
  3553  03FB  00A0               	movwf	??_logf^(0+128)
  3554  03FC  3004               	movlw	4
  3555  03FD  00A1               	movwf	(??_logf^(0+128)+1)
  3556  03FE  3035               	movlw	53
  3557  03FF  00A2               	movwf	(??_logf^(0+128)+2)
  3558  0400  303F               	movlw	63
  3559  0401  00A3               	movwf	(??_logf^(0+128)+3)
  3560  0402  30FF               	movlw	255
  3561  0403  0566               	andwf	logf@ix^(0+128),w
  3562  0404  00A4               	movwf	(??_logf+4)^(0+128)
  3563  0405  30FF               	movlw	255
  3564  0406  0567               	andwf	(logf@ix+1)^(0+128),w
  3565  0407  00A5               	movwf	((??_logf+4)^(0+128)+1)
  3566  0408  307F               	movlw	127
  3567  0409  0568               	andwf	(logf@ix+2)^(0+128),w
  3568  040A  00A6               	movwf	((??_logf+4)^(0+128)+2)
  3569  040B  3000               	movlw	0
  3570  040C  0569               	andwf	(logf@ix+3)^(0+128),w
  3571  040D  00A7               	movwf	((??_logf+4)^(0+128)+3)
  3572  040E  0824               	movf	(??_logf+4)^(0+128),w
  3573  040F  07A0               	addwf	??_logf^(0+128),f
  3574  0410  0825               	movf	(??_logf+5)^(0+128),w
  3575  0411  3DA1               	addwfc	(??_logf^(0+128)+1),f
  3576  0412  0826               	movf	(??_logf+6)^(0+128),w
  3577  0413  3DA2               	addwfc	(??_logf^(0+128)+2),f
  3578  0414  0827               	movf	(??_logf+7)^(0+128),w
  3579  0415  3DA3               	addwfc	(??_logf^(0+128)+3),f
  3580  0416  0823               	movf	(??_logf+3)^(0+128),w
  3581  0417  00E9               	movwf	(logf@ix+3)^(0+128)
  3582  0418  0822               	movf	(??_logf+2)^(0+128),w
  3583  0419  00E8               	movwf	(logf@ix+2)^(0+128)
  3584  041A  0821               	movf	(??_logf+1)^(0+128),w
  3585  041B  00E7               	movwf	(logf@ix+1)^(0+128)
  3586  041C  0820               	movf	??_logf^(0+128),w
  3587  041D  00E6               	movwf	logf@ix^(0+128)
  3588  041E                     l2523:
  3589  041E  0869               	movf	(logf@ix+3)^(0+128),w
  3590  041F  00E1               	movwf	(logf@u+3)^(0+128)
  3591  0420  0868               	movf	(logf@ix+2)^(0+128),w
  3592  0421  00E0               	movwf	(logf@u+2)^(0+128)
  3593  0422  0867               	movf	(logf@ix+1)^(0+128),w
  3594  0423  00DF               	movwf	(logf@u+1)^(0+128)
  3595  0424  0866               	movf	logf@ix^(0+128),w
  3596  0425  00DE               	movwf	logf@u^(0+128)
  3597  0426                     l2525:
  3598  0426  0861               	movf	(logf@u+3)^(0+128),w
  3599  0427  0020               	movlb	0	; select bank0
  3600  0428  00EE               	movwf	logf@x+3
  3601  0429  0021               	movlb	1	; select bank1
  3602  042A  0860               	movf	(logf@u+2)^(0+128),w
  3603  042B  0020               	movlb	0	; select bank0
  3604  042C  00ED               	movwf	logf@x+2
  3605  042D  0021               	movlb	1	; select bank1
  3606  042E  085F               	movf	(logf@u+1)^(0+128),w
  3607  042F  0020               	movlb	0	; select bank0
  3608  0430  00EC               	movwf	logf@x+1
  3609  0431  0021               	movlb	1	; select bank1
  3610  0432  085E               	movf	logf@u^(0+128),w
  3611  0433  0020               	movlb	0	; select bank0
  3612  0434  00EB               	movwf	logf@x
  3613  0435                     l2527:
  3614  0435  30BF               	movlw	191
  3615  0436  00D2               	movwf	___fladd@b+3
  3616  0437  3080               	movlw	128
  3617  0438  00D1               	movwf	___fladd@b+2
  3618  0439  3000               	movlw	0
  3619  043A  00D0               	movwf	___fladd@b+1
  3620  043B  3000               	movlw	0
  3621  043C  00CF               	movwf	___fladd@b
  3622  043D  086E               	movf	logf@x+3,w
  3623  043E  00D6               	movwf	___fladd@a+3
  3624  043F  086D               	movf	logf@x+2,w
  3625  0440  00D5               	movwf	___fladd@a+2
  3626  0441  086C               	movf	logf@x+1,w
  3627  0442  00D4               	movwf	___fladd@a+1
  3628  0443  086B               	movf	logf@x,w
  3629  0444  00D3               	movwf	___fladd@a
  3630  0445  318D  25C8  3182   	fcall	___fladd
  3631  0448  0020               	movlb	0	; select bank0
  3632  0449  0852               	movf	?___fladd+3,w
  3633  044A  0021               	movlb	1	; select bank1
  3634  044B  00E5               	movwf	(logf@f+3)^(0+128)
  3635  044C  0020               	movlb	0	; select bank0
  3636  044D  0851               	movf	?___fladd+2,w
  3637  044E  0021               	movlb	1	; select bank1
  3638  044F  00E4               	movwf	(logf@f+2)^(0+128)
  3639  0450  0020               	movlb	0	; select bank0
  3640  0451  0850               	movf	?___fladd+1,w
  3641  0452  0021               	movlb	1	; select bank1
  3642  0453  00E3               	movwf	(logf@f+1)^(0+128)
  3643  0454  0020               	movlb	0	; select bank0
  3644  0455  084F               	movf	?___fladd,w
  3645  0456  0021               	movlb	1	; select bank1
  3646  0457  00E2               	movwf	logf@f^(0+128)
  3647  0458                     l2529:
  3648  0458  3040               	movlw	64
  3649  0459  0020               	movlb	0	; select bank0
  3650  045A  00D2               	movwf	___fladd@b+3
  3651  045B  3000               	movlw	0
  3652  045C  00D1               	movwf	___fladd@b+2
  3653  045D  3000               	movlw	0
  3654  045E  00D0               	movwf	___fladd@b+1
  3655  045F  3000               	movlw	0
  3656  0460  00CF               	movwf	___fladd@b
  3657  0461  0021               	movlb	1	; select bank1
  3658  0462  0865               	movf	(logf@f+3)^(0+128),w
  3659  0463  0020               	movlb	0	; select bank0
  3660  0464  00D6               	movwf	___fladd@a+3
  3661  0465  0021               	movlb	1	; select bank1
  3662  0466  0864               	movf	(logf@f+2)^(0+128),w
  3663  0467  0020               	movlb	0	; select bank0
  3664  0468  00D5               	movwf	___fladd@a+2
  3665  0469  0021               	movlb	1	; select bank1
  3666  046A  0863               	movf	(logf@f+1)^(0+128),w
  3667  046B  0020               	movlb	0	; select bank0
  3668  046C  00D4               	movwf	___fladd@a+1
  3669  046D  0021               	movlb	1	; select bank1
  3670  046E  0862               	movf	logf@f^(0+128),w
  3671  046F  0020               	movlb	0	; select bank0
  3672  0470  00D3               	movwf	___fladd@a
  3673  0471  318D  25C8  3182   	fcall	___fladd
  3674  0474  0020               	movlb	0	; select bank0
  3675  0475  0852               	movf	?___fladd+3,w
  3676  0476  00B8               	movwf	___fldiv@a+3
  3677  0477  0851               	movf	?___fladd+2,w
  3678  0478  00B7               	movwf	___fldiv@a+2
  3679  0479  0850               	movf	?___fladd+1,w
  3680  047A  00B6               	movwf	___fldiv@a+1
  3681  047B  084F               	movf	?___fladd,w
  3682  047C  00B5               	movwf	___fldiv@a
  3683  047D  0021               	movlb	1	; select bank1
  3684  047E  0865               	movf	(logf@f+3)^(0+128),w
  3685  047F  0020               	movlb	0	; select bank0
  3686  0480  00BC               	movwf	___fldiv@b+3
  3687  0481  0021               	movlb	1	; select bank1
  3688  0482  0864               	movf	(logf@f+2)^(0+128),w
  3689  0483  0020               	movlb	0	; select bank0
  3690  0484  00BB               	movwf	___fldiv@b+2
  3691  0485  0021               	movlb	1	; select bank1
  3692  0486  0863               	movf	(logf@f+1)^(0+128),w
  3693  0487  0020               	movlb	0	; select bank0
  3694  0488  00BA               	movwf	___fldiv@b+1
  3695  0489  0021               	movlb	1	; select bank1
  3696  048A  0862               	movf	logf@f^(0+128),w
  3697  048B  0020               	movlb	0	; select bank0
  3698  048C  00B9               	movwf	___fldiv@b
  3699  048D  318C  2414  3182   	fcall	___fldiv
  3700  0490  0020               	movlb	0	; select bank0
  3701  0491  0838               	movf	?___fldiv+3,w
  3702  0492  0021               	movlb	1	; select bank1
  3703  0493  00D1               	movwf	(logf@s+3)^(0+128)
  3704  0494  0020               	movlb	0	; select bank0
  3705  0495  0837               	movf	?___fldiv+2,w
  3706  0496  0021               	movlb	1	; select bank1
  3707  0497  00D0               	movwf	(logf@s+2)^(0+128)
  3708  0498  0020               	movlb	0	; select bank0
  3709  0499  0836               	movf	?___fldiv+1,w
  3710  049A  0021               	movlb	1	; select bank1
  3711  049B  00CF               	movwf	(logf@s+1)^(0+128)
  3712  049C  0020               	movlb	0	; select bank0
  3713  049D  0835               	movf	?___fldiv,w
  3714  049E  0021               	movlb	1	; select bank1
  3715  049F  00CE               	movwf	logf@s^(0+128)
  3716  04A0                     l2531:
  3717  04A0  0851               	movf	(logf@s+3)^(0+128),w
  3718  04A1  0020               	movlb	0	; select bank0
  3719  04A2  00A3               	movwf	___flmul@b+3
  3720  04A3  0021               	movlb	1	; select bank1
  3721  04A4  0850               	movf	(logf@s+2)^(0+128),w
  3722  04A5  0020               	movlb	0	; select bank0
  3723  04A6  00A2               	movwf	___flmul@b+2
  3724  04A7  0021               	movlb	1	; select bank1
  3725  04A8  084F               	movf	(logf@s+1)^(0+128),w
  3726  04A9  0020               	movlb	0	; select bank0
  3727  04AA  00A1               	movwf	___flmul@b+1
  3728  04AB  0021               	movlb	1	; select bank1
  3729  04AC  084E               	movf	logf@s^(0+128),w
  3730  04AD  0020               	movlb	0	; select bank0
  3731  04AE  00A0               	movwf	___flmul@b
  3732  04AF  0021               	movlb	1	; select bank1
  3733  04B0  0851               	movf	(logf@s+3)^(0+128),w
  3734  04B1  0020               	movlb	0	; select bank0
  3735  04B2  00A7               	movwf	___flmul@a+3
  3736  04B3  0021               	movlb	1	; select bank1
  3737  04B4  0850               	movf	(logf@s+2)^(0+128),w
  3738  04B5  0020               	movlb	0	; select bank0
  3739  04B6  00A6               	movwf	___flmul@a+2
  3740  04B7  0021               	movlb	1	; select bank1
  3741  04B8  084F               	movf	(logf@s+1)^(0+128),w
  3742  04B9  0020               	movlb	0	; select bank0
  3743  04BA  00A5               	movwf	___flmul@a+1
  3744  04BB  0021               	movlb	1	; select bank1
  3745  04BC  084E               	movf	logf@s^(0+128),w
  3746  04BD  0020               	movlb	0	; select bank0
  3747  04BE  00A4               	movwf	___flmul@a
  3748  04BF  3180  2046  3182   	fcall	___flmul
  3749  04C2  0020               	movlb	0	; select bank0
  3750  04C3  0823               	movf	?___flmul+3,w
  3751  04C4  0021               	movlb	1	; select bank1
  3752  04C5  00D5               	movwf	(logf@z+3)^(0+128)
  3753  04C6  0020               	movlb	0	; select bank0
  3754  04C7  0822               	movf	?___flmul+2,w
  3755  04C8  0021               	movlb	1	; select bank1
  3756  04C9  00D4               	movwf	(logf@z+2)^(0+128)
  3757  04CA  0020               	movlb	0	; select bank0
  3758  04CB  0821               	movf	?___flmul+1,w
  3759  04CC  0021               	movlb	1	; select bank1
  3760  04CD  00D3               	movwf	(logf@z+1)^(0+128)
  3761  04CE  0020               	movlb	0	; select bank0
  3762  04CF  0820               	movf	?___flmul,w
  3763  04D0  0021               	movlb	1	; select bank1
  3764  04D1  00D2               	movwf	logf@z^(0+128)
  3765  04D2                     l2533:
  3766  04D2  0855               	movf	(logf@z+3)^(0+128),w
  3767  04D3  0020               	movlb	0	; select bank0
  3768  04D4  00A3               	movwf	___flmul@b+3
  3769  04D5  0021               	movlb	1	; select bank1
  3770  04D6  0854               	movf	(logf@z+2)^(0+128),w
  3771  04D7  0020               	movlb	0	; select bank0
  3772  04D8  00A2               	movwf	___flmul@b+2
  3773  04D9  0021               	movlb	1	; select bank1
  3774  04DA  0853               	movf	(logf@z+1)^(0+128),w
  3775  04DB  0020               	movlb	0	; select bank0
  3776  04DC  00A1               	movwf	___flmul@b+1
  3777  04DD  0021               	movlb	1	; select bank1
  3778  04DE  0852               	movf	logf@z^(0+128),w
  3779  04DF  0020               	movlb	0	; select bank0
  3780  04E0  00A0               	movwf	___flmul@b
  3781  04E1  0021               	movlb	1	; select bank1
  3782  04E2  0855               	movf	(logf@z+3)^(0+128),w
  3783  04E3  0020               	movlb	0	; select bank0
  3784  04E4  00A7               	movwf	___flmul@a+3
  3785  04E5  0021               	movlb	1	; select bank1
  3786  04E6  0854               	movf	(logf@z+2)^(0+128),w
  3787  04E7  0020               	movlb	0	; select bank0
  3788  04E8  00A6               	movwf	___flmul@a+2
  3789  04E9  0021               	movlb	1	; select bank1
  3790  04EA  0853               	movf	(logf@z+1)^(0+128),w
  3791  04EB  0020               	movlb	0	; select bank0
  3792  04EC  00A5               	movwf	___flmul@a+1
  3793  04ED  0021               	movlb	1	; select bank1
  3794  04EE  0852               	movf	logf@z^(0+128),w
  3795  04EF  0020               	movlb	0	; select bank0
  3796  04F0  00A4               	movwf	___flmul@a
  3797  04F1  3180  2046  3182   	fcall	___flmul
  3798  04F4  0020               	movlb	0	; select bank0
  3799  04F5  0823               	movf	?___flmul+3,w
  3800  04F6  0021               	movlb	1	; select bank1
  3801  04F7  00D9               	movwf	(logf@w+3)^(0+128)
  3802  04F8  0020               	movlb	0	; select bank0
  3803  04F9  0822               	movf	?___flmul+2,w
  3804  04FA  0021               	movlb	1	; select bank1
  3805  04FB  00D8               	movwf	(logf@w+2)^(0+128)
  3806  04FC  0020               	movlb	0	; select bank0
  3807  04FD  0821               	movf	?___flmul+1,w
  3808  04FE  0021               	movlb	1	; select bank1
  3809  04FF  00D7               	movwf	(logf@w+1)^(0+128)
  3810  0500  0020               	movlb	0	; select bank0
  3811  0501  0820               	movf	?___flmul,w
  3812  0502  0021               	movlb	1	; select bank1
  3813  0503  00D6               	movwf	logf@w^(0+128)
  3814  0504                     l2535:
  3815  0504  303E               	movlw	62
  3816  0505  0020               	movlb	0	; select bank0
  3817  0506  00D2               	movwf	___fladd@b+3
  3818  0507  30CC               	movlw	204
  3819  0508  00D1               	movwf	___fladd@b+2
  3820  0509  30CE               	movlw	206
  3821  050A  00D0               	movwf	___fladd@b+1
  3822  050B  3013               	movlw	19
  3823  050C  00CF               	movwf	___fladd@b
  3824  050D  303E               	movlw	62
  3825  050E  00A3               	movwf	___flmul@b+3
  3826  050F  3078               	movlw	120
  3827  0510  00A2               	movwf	___flmul@b+2
  3828  0511  309E               	movlw	158
  3829  0512  00A1               	movwf	___flmul@b+1
  3830  0513  3026               	movlw	38
  3831  0514  00A0               	movwf	___flmul@b
  3832  0515  0021               	movlb	1	; select bank1
  3833  0516  0859               	movf	(logf@w+3)^(0+128),w
  3834  0517  0020               	movlb	0	; select bank0
  3835  0518  00A7               	movwf	___flmul@a+3
  3836  0519  0021               	movlb	1	; select bank1
  3837  051A  0858               	movf	(logf@w+2)^(0+128),w
  3838  051B  0020               	movlb	0	; select bank0
  3839  051C  00A6               	movwf	___flmul@a+2
  3840  051D  0021               	movlb	1	; select bank1
  3841  051E  0857               	movf	(logf@w+1)^(0+128),w
  3842  051F  0020               	movlb	0	; select bank0
  3843  0520  00A5               	movwf	___flmul@a+1
  3844  0521  0021               	movlb	1	; select bank1
  3845  0522  0856               	movf	logf@w^(0+128),w
  3846  0523  0020               	movlb	0	; select bank0
  3847  0524  00A4               	movwf	___flmul@a
  3848  0525  3180  2046  3182   	fcall	___flmul
  3849  0528  0020               	movlb	0	; select bank0
  3850  0529  0823               	movf	?___flmul+3,w
  3851  052A  00D6               	movwf	___fladd@a+3
  3852  052B  0822               	movf	?___flmul+2,w
  3853  052C  00D5               	movwf	___fladd@a+2
  3854  052D  0821               	movf	?___flmul+1,w
  3855  052E  00D4               	movwf	___fladd@a+1
  3856  052F  0820               	movf	?___flmul,w
  3857  0530  00D3               	movwf	___fladd@a
  3858  0531  318D  25C8  3182   	fcall	___fladd
  3859  0534  0020               	movlb	0	; select bank0
  3860  0535  0852               	movf	?___fladd+3,w
  3861  0536  0021               	movlb	1	; select bank1
  3862  0537  00DD               	movwf	(_logf$1135+3)^(0+128)
  3863  0538  0020               	movlb	0	; select bank0
  3864  0539  0851               	movf	?___fladd+2,w
  3865  053A  0021               	movlb	1	; select bank1
  3866  053B  00DC               	movwf	(_logf$1135+2)^(0+128)
  3867  053C  0020               	movlb	0	; select bank0
  3868  053D  0850               	movf	?___fladd+1,w
  3869  053E  0021               	movlb	1	; select bank1
  3870  053F  00DB               	movwf	(_logf$1135+1)^(0+128)
  3871  0540  0020               	movlb	0	; select bank0
  3872  0541  084F               	movf	?___fladd,w
  3873  0542  0021               	movlb	1	; select bank1
  3874  0543  00DA               	movwf	_logf$1135^(0+128)
  3875  0544                     l2537:
  3876  0544  0859               	movf	(logf@w+3)^(0+128),w
  3877  0545  0020               	movlb	0	; select bank0
  3878  0546  00A3               	movwf	___flmul@b+3
  3879  0547  0021               	movlb	1	; select bank1
  3880  0548  0858               	movf	(logf@w+2)^(0+128),w
  3881  0549  0020               	movlb	0	; select bank0
  3882  054A  00A2               	movwf	___flmul@b+2
  3883  054B  0021               	movlb	1	; select bank1
  3884  054C  0857               	movf	(logf@w+1)^(0+128),w
  3885  054D  0020               	movlb	0	; select bank0
  3886  054E  00A1               	movwf	___flmul@b+1
  3887  054F  0021               	movlb	1	; select bank1
  3888  0550  0856               	movf	logf@w^(0+128),w
  3889  0551  0020               	movlb	0	; select bank0
  3890  0552  00A0               	movwf	___flmul@b
  3891  0553  0021               	movlb	1	; select bank1
  3892  0554  085D               	movf	(_logf$1135+3)^(0+128),w
  3893  0555  0020               	movlb	0	; select bank0
  3894  0556  00A7               	movwf	___flmul@a+3
  3895  0557  0021               	movlb	1	; select bank1
  3896  0558  085C               	movf	(_logf$1135+2)^(0+128),w
  3897  0559  0020               	movlb	0	; select bank0
  3898  055A  00A6               	movwf	___flmul@a+2
  3899  055B  0021               	movlb	1	; select bank1
  3900  055C  085B               	movf	(_logf$1135+1)^(0+128),w
  3901  055D  0020               	movlb	0	; select bank0
  3902  055E  00A5               	movwf	___flmul@a+1
  3903  055F  0021               	movlb	1	; select bank1
  3904  0560  085A               	movf	_logf$1135^(0+128),w
  3905  0561  0020               	movlb	0	; select bank0
  3906  0562  00A4               	movwf	___flmul@a
  3907  0563  3180  2046  3182   	fcall	___flmul
  3908  0566  0020               	movlb	0	; select bank0
  3909  0567  0823               	movf	?___flmul+3,w
  3910  0568  0021               	movlb	1	; select bank1
  3911  0569  00AF               	movwf	(logf@t1+3)^(0+128)
  3912  056A  0020               	movlb	0	; select bank0
  3913  056B  0822               	movf	?___flmul+2,w
  3914  056C  0021               	movlb	1	; select bank1
  3915  056D  00AE               	movwf	(logf@t1+2)^(0+128)
  3916  056E  0020               	movlb	0	; select bank0
  3917  056F  0821               	movf	?___flmul+1,w
  3918  0570  0021               	movlb	1	; select bank1
  3919  0571  00AD               	movwf	(logf@t1+1)^(0+128)
  3920  0572  0020               	movlb	0	; select bank0
  3921  0573  0820               	movf	?___flmul,w
  3922  0574  0021               	movlb	1	; select bank1
  3923  0575  00AC               	movwf	logf@t1^(0+128)
  3924  0576                     l2539:
  3925  0576  303F               	movlw	63
  3926  0577  0020               	movlb	0	; select bank0
  3927  0578  00D2               	movwf	___fladd@b+3
  3928  0579  302A               	movlw	42
  3929  057A  00D1               	movwf	___fladd@b+2
  3930  057B  30AA               	movlw	170
  3931  057C  00D0               	movwf	___fladd@b+1
  3932  057D  30AA               	movlw	170
  3933  057E  00CF               	movwf	___fladd@b
  3934  057F  303E               	movlw	62
  3935  0580  00A3               	movwf	___flmul@b+3
  3936  0581  3091               	movlw	145
  3937  0582  00A2               	movwf	___flmul@b+2
  3938  0583  30E9               	movlw	233
  3939  0584  00A1               	movwf	___flmul@b+1
  3940  0585  30EE               	movlw	238
  3941  0586  00A0               	movwf	___flmul@b
  3942  0587  0021               	movlb	1	; select bank1
  3943  0588  0859               	movf	(logf@w+3)^(0+128),w
  3944  0589  0020               	movlb	0	; select bank0
  3945  058A  00A7               	movwf	___flmul@a+3
  3946  058B  0021               	movlb	1	; select bank1
  3947  058C  0858               	movf	(logf@w+2)^(0+128),w
  3948  058D  0020               	movlb	0	; select bank0
  3949  058E  00A6               	movwf	___flmul@a+2
  3950  058F  0021               	movlb	1	; select bank1
  3951  0590  0857               	movf	(logf@w+1)^(0+128),w
  3952  0591  0020               	movlb	0	; select bank0
  3953  0592  00A5               	movwf	___flmul@a+1
  3954  0593  0021               	movlb	1	; select bank1
  3955  0594  0856               	movf	logf@w^(0+128),w
  3956  0595  0020               	movlb	0	; select bank0
  3957  0596  00A4               	movwf	___flmul@a
  3958  0597  3180  2046  3182   	fcall	___flmul
  3959  059A  0020               	movlb	0	; select bank0
  3960  059B  0823               	movf	?___flmul+3,w
  3961  059C  00D6               	movwf	___fladd@a+3
  3962  059D  0822               	movf	?___flmul+2,w
  3963  059E  00D5               	movwf	___fladd@a+2
  3964  059F  0821               	movf	?___flmul+1,w
  3965  05A0  00D4               	movwf	___fladd@a+1
  3966  05A1  0820               	movf	?___flmul,w
  3967  05A2  00D3               	movwf	___fladd@a
  3968  05A3  318D  25C8  3182   	fcall	___fladd
  3969  05A6  0020               	movlb	0	; select bank0
  3970  05A7  0852               	movf	?___fladd+3,w
  3971  05A8  0021               	movlb	1	; select bank1
  3972  05A9  00DD               	movwf	(_logf$1135+3)^(0+128)
  3973  05AA  0020               	movlb	0	; select bank0
  3974  05AB  0851               	movf	?___fladd+2,w
  3975  05AC  0021               	movlb	1	; select bank1
  3976  05AD  00DC               	movwf	(_logf$1135+2)^(0+128)
  3977  05AE  0020               	movlb	0	; select bank0
  3978  05AF  0850               	movf	?___fladd+1,w
  3979  05B0  0021               	movlb	1	; select bank1
  3980  05B1  00DB               	movwf	(_logf$1135+1)^(0+128)
  3981  05B2  0020               	movlb	0	; select bank0
  3982  05B3  084F               	movf	?___fladd,w
  3983  05B4  0021               	movlb	1	; select bank1
  3984  05B5  00DA               	movwf	_logf$1135^(0+128)
  3985  05B6                     l2541:
  3986  05B6  0855               	movf	(logf@z+3)^(0+128),w
  3987  05B7  0020               	movlb	0	; select bank0
  3988  05B8  00A3               	movwf	___flmul@b+3
  3989  05B9  0021               	movlb	1	; select bank1
  3990  05BA  0854               	movf	(logf@z+2)^(0+128),w
  3991  05BB  0020               	movlb	0	; select bank0
  3992  05BC  00A2               	movwf	___flmul@b+2
  3993  05BD  0021               	movlb	1	; select bank1
  3994  05BE  0853               	movf	(logf@z+1)^(0+128),w
  3995  05BF  0020               	movlb	0	; select bank0
  3996  05C0  00A1               	movwf	___flmul@b+1
  3997  05C1  0021               	movlb	1	; select bank1
  3998  05C2  0852               	movf	logf@z^(0+128),w
  3999  05C3  0020               	movlb	0	; select bank0
  4000  05C4  00A0               	movwf	___flmul@b
  4001  05C5  0021               	movlb	1	; select bank1
  4002  05C6  085D               	movf	(_logf$1135+3)^(0+128),w
  4003  05C7  0020               	movlb	0	; select bank0
  4004  05C8  00A7               	movwf	___flmul@a+3
  4005  05C9  0021               	movlb	1	; select bank1
  4006  05CA  085C               	movf	(_logf$1135+2)^(0+128),w
  4007  05CB  0020               	movlb	0	; select bank0
  4008  05CC  00A6               	movwf	___flmul@a+2
  4009  05CD  0021               	movlb	1	; select bank1
  4010  05CE  085B               	movf	(_logf$1135+1)^(0+128),w
  4011  05CF  0020               	movlb	0	; select bank0
  4012  05D0  00A5               	movwf	___flmul@a+1
  4013  05D1  0021               	movlb	1	; select bank1
  4014  05D2  085A               	movf	_logf$1135^(0+128),w
  4015  05D3  0020               	movlb	0	; select bank0
  4016  05D4  00A4               	movwf	___flmul@a
  4017  05D5  3180  2046  3182   	fcall	___flmul
  4018  05D8  0020               	movlb	0	; select bank0
  4019  05D9  0823               	movf	?___flmul+3,w
  4020  05DA  0021               	movlb	1	; select bank1
  4021  05DB  00B3               	movwf	(logf@t2+3)^(0+128)
  4022  05DC  0020               	movlb	0	; select bank0
  4023  05DD  0822               	movf	?___flmul+2,w
  4024  05DE  0021               	movlb	1	; select bank1
  4025  05DF  00B2               	movwf	(logf@t2+2)^(0+128)
  4026  05E0  0020               	movlb	0	; select bank0
  4027  05E1  0821               	movf	?___flmul+1,w
  4028  05E2  0021               	movlb	1	; select bank1
  4029  05E3  00B1               	movwf	(logf@t2+1)^(0+128)
  4030  05E4  0020               	movlb	0	; select bank0
  4031  05E5  0820               	movf	?___flmul,w
  4032  05E6  0021               	movlb	1	; select bank1
  4033  05E7  00B0               	movwf	logf@t2^(0+128)
  4034  05E8                     l2543:
  4035  05E8  082F               	movf	(logf@t1+3)^(0+128),w
  4036  05E9  0020               	movlb	0	; select bank0
  4037  05EA  00D2               	movwf	___fladd@b+3
  4038  05EB  0021               	movlb	1	; select bank1
  4039  05EC  082E               	movf	(logf@t1+2)^(0+128),w
  4040  05ED  0020               	movlb	0	; select bank0
  4041  05EE  00D1               	movwf	___fladd@b+2
  4042  05EF  0021               	movlb	1	; select bank1
  4043  05F0  082D               	movf	(logf@t1+1)^(0+128),w
  4044  05F1  0020               	movlb	0	; select bank0
  4045  05F2  00D0               	movwf	___fladd@b+1
  4046  05F3  0021               	movlb	1	; select bank1
  4047  05F4  082C               	movf	logf@t1^(0+128),w
  4048  05F5  0020               	movlb	0	; select bank0
  4049  05F6  00CF               	movwf	___fladd@b
  4050  05F7  0021               	movlb	1	; select bank1
  4051  05F8  0833               	movf	(logf@t2+3)^(0+128),w
  4052  05F9  0020               	movlb	0	; select bank0
  4053  05FA  00D6               	movwf	___fladd@a+3
  4054  05FB  0021               	movlb	1	; select bank1
  4055  05FC  0832               	movf	(logf@t2+2)^(0+128),w
  4056  05FD  0020               	movlb	0	; select bank0
  4057  05FE  00D5               	movwf	___fladd@a+2
  4058  05FF  0021               	movlb	1	; select bank1
  4059  0600  0831               	movf	(logf@t2+1)^(0+128),w
  4060  0601  0020               	movlb	0	; select bank0
  4061  0602  00D4               	movwf	___fladd@a+1
  4062  0603  0021               	movlb	1	; select bank1
  4063  0604  0830               	movf	logf@t2^(0+128),w
  4064  0605  0020               	movlb	0	; select bank0
  4065  0606  00D3               	movwf	___fladd@a
  4066  0607  318D  25C8  3182   	fcall	___fladd
  4067  060A  0020               	movlb	0	; select bank0
  4068  060B  0852               	movf	?___fladd+3,w
  4069  060C  0021               	movlb	1	; select bank1
  4070  060D  00AB               	movwf	(logf@R+3)^(0+128)
  4071  060E  0020               	movlb	0	; select bank0
  4072  060F  0851               	movf	?___fladd+2,w
  4073  0610  0021               	movlb	1	; select bank1
  4074  0611  00AA               	movwf	(logf@R+2)^(0+128)
  4075  0612  0020               	movlb	0	; select bank0
  4076  0613  0850               	movf	?___fladd+1,w
  4077  0614  0021               	movlb	1	; select bank1
  4078  0615  00A9               	movwf	(logf@R+1)^(0+128)
  4079  0616  0020               	movlb	0	; select bank0
  4080  0617  084F               	movf	?___fladd,w
  4081  0618  0021               	movlb	1	; select bank1
  4082  0619  00A8               	movwf	logf@R^(0+128)
  4083  061A                     l2545:
  4084  061A  303F               	movlw	63
  4085  061B  0020               	movlb	0	; select bank0
  4086  061C  00A3               	movwf	___flmul@b+3
  4087  061D  3000               	movlw	0
  4088  061E  00A2               	movwf	___flmul@b+2
  4089  061F  3000               	movlw	0
  4090  0620  00A1               	movwf	___flmul@b+1
  4091  0621  3000               	movlw	0
  4092  0622  00A0               	movwf	___flmul@b
  4093  0623  0021               	movlb	1	; select bank1
  4094  0624  0865               	movf	(logf@f+3)^(0+128),w
  4095  0625  0020               	movlb	0	; select bank0
  4096  0626  00A7               	movwf	___flmul@a+3
  4097  0627  0021               	movlb	1	; select bank1
  4098  0628  0864               	movf	(logf@f+2)^(0+128),w
  4099  0629  0020               	movlb	0	; select bank0
  4100  062A  00A6               	movwf	___flmul@a+2
  4101  062B  0021               	movlb	1	; select bank1
  4102  062C  0863               	movf	(logf@f+1)^(0+128),w
  4103  062D  0020               	movlb	0	; select bank0
  4104  062E  00A5               	movwf	___flmul@a+1
  4105  062F  0021               	movlb	1	; select bank1
  4106  0630  0862               	movf	logf@f^(0+128),w
  4107  0631  0020               	movlb	0	; select bank0
  4108  0632  00A4               	movwf	___flmul@a
  4109  0633  3180  2046  3182   	fcall	___flmul
  4110  0636  0020               	movlb	0	; select bank0
  4111  0637  0823               	movf	?___flmul+3,w
  4112  0638  0021               	movlb	1	; select bank1
  4113  0639  00DD               	movwf	(_logf$1135+3)^(0+128)
  4114  063A  0020               	movlb	0	; select bank0
  4115  063B  0822               	movf	?___flmul+2,w
  4116  063C  0021               	movlb	1	; select bank1
  4117  063D  00DC               	movwf	(_logf$1135+2)^(0+128)
  4118  063E  0020               	movlb	0	; select bank0
  4119  063F  0821               	movf	?___flmul+1,w
  4120  0640  0021               	movlb	1	; select bank1
  4121  0641  00DB               	movwf	(_logf$1135+1)^(0+128)
  4122  0642  0020               	movlb	0	; select bank0
  4123  0643  0820               	movf	?___flmul,w
  4124  0644  0021               	movlb	1	; select bank1
  4125  0645  00DA               	movwf	_logf$1135^(0+128)
  4126  0646                     l2547:
  4127  0646  0865               	movf	(logf@f+3)^(0+128),w
  4128  0647  0020               	movlb	0	; select bank0
  4129  0648  00A3               	movwf	___flmul@b+3
  4130  0649  0021               	movlb	1	; select bank1
  4131  064A  0864               	movf	(logf@f+2)^(0+128),w
  4132  064B  0020               	movlb	0	; select bank0
  4133  064C  00A2               	movwf	___flmul@b+2
  4134  064D  0021               	movlb	1	; select bank1
  4135  064E  0863               	movf	(logf@f+1)^(0+128),w
  4136  064F  0020               	movlb	0	; select bank0
  4137  0650  00A1               	movwf	___flmul@b+1
  4138  0651  0021               	movlb	1	; select bank1
  4139  0652  0862               	movf	logf@f^(0+128),w
  4140  0653  0020               	movlb	0	; select bank0
  4141  0654  00A0               	movwf	___flmul@b
  4142  0655  0021               	movlb	1	; select bank1
  4143  0656  085D               	movf	(_logf$1135+3)^(0+128),w
  4144  0657  0020               	movlb	0	; select bank0
  4145  0658  00A7               	movwf	___flmul@a+3
  4146  0659  0021               	movlb	1	; select bank1
  4147  065A  085C               	movf	(_logf$1135+2)^(0+128),w
  4148  065B  0020               	movlb	0	; select bank0
  4149  065C  00A6               	movwf	___flmul@a+2
  4150  065D  0021               	movlb	1	; select bank1
  4151  065E  085B               	movf	(_logf$1135+1)^(0+128),w
  4152  065F  0020               	movlb	0	; select bank0
  4153  0660  00A5               	movwf	___flmul@a+1
  4154  0661  0021               	movlb	1	; select bank1
  4155  0662  085A               	movf	_logf$1135^(0+128),w
  4156  0663  0020               	movlb	0	; select bank0
  4157  0664  00A4               	movwf	___flmul@a
  4158  0665  3180  2046  3182   	fcall	___flmul
  4159  0668  0020               	movlb	0	; select bank0
  4160  0669  0823               	movf	?___flmul+3,w
  4161  066A  0021               	movlb	1	; select bank1
  4162  066B  00C9               	movwf	(logf@hfsq+3)^(0+128)
  4163  066C  0020               	movlb	0	; select bank0
  4164  066D  0822               	movf	?___flmul+2,w
  4165  066E  0021               	movlb	1	; select bank1
  4166  066F  00C8               	movwf	(logf@hfsq+2)^(0+128)
  4167  0670  0020               	movlb	0	; select bank0
  4168  0671  0821               	movf	?___flmul+1,w
  4169  0672  0021               	movlb	1	; select bank1
  4170  0673  00C7               	movwf	(logf@hfsq+1)^(0+128)
  4171  0674  0020               	movlb	0	; select bank0
  4172  0675  0820               	movf	?___flmul,w
  4173  0676  0021               	movlb	1	; select bank1
  4174  0677  00C6               	movwf	logf@hfsq^(0+128)
  4175  0678                     l2549:
  4176  0678  0844               	movf	logf@k^(0+128),w
  4177  0679  00F0               	movwf	___xxtofl@val
  4178  067A  0845               	movf	(logf@k+1)^(0+128),w
  4179  067B  00F1               	movwf	___xxtofl@val+1
  4180  067C  0D89               	rlf	9,f
  4181  067D  3B89               	subwfb	9,f
  4182  067E  0989               	comf	9,f
  4183  067F  00F2               	movwf	___xxtofl@val+2
  4184  0680  00F3               	movwf	___xxtofl@val+3
  4185  0681  3001               	movlw	1
  4186  0682  3189  21D4  3182   	fcall	___xxtofl
  4187  0685  0873               	movf	?___xxtofl+3,w
  4188  0686  0021               	movlb	1	; select bank1
  4189  0687  00CD               	movwf	(logf@dk+3)^(0+128)
  4190  0688  0872               	movf	?___xxtofl+2,w
  4191  0689  00CC               	movwf	(logf@dk+2)^(0+128)
  4192  068A  0871               	movf	?___xxtofl+1,w
  4193  068B  00CB               	movwf	(logf@dk+1)^(0+128)
  4194  068C  0870               	movf	?___xxtofl,w
  4195  068D  00CA               	movwf	logf@dk^(0+128)
  4196  068E                     l2551:
  4197  068E  0851               	movf	(logf@s+3)^(0+128),w
  4198  068F  0020               	movlb	0	; select bank0
  4199  0690  00A3               	movwf	___flmul@b+3
  4200  0691  0021               	movlb	1	; select bank1
  4201  0692  0850               	movf	(logf@s+2)^(0+128),w
  4202  0693  0020               	movlb	0	; select bank0
  4203  0694  00A2               	movwf	___flmul@b+2
  4204  0695  0021               	movlb	1	; select bank1
  4205  0696  084F               	movf	(logf@s+1)^(0+128),w
  4206  0697  0020               	movlb	0	; select bank0
  4207  0698  00A1               	movwf	___flmul@b+1
  4208  0699  0021               	movlb	1	; select bank1
  4209  069A  084E               	movf	logf@s^(0+128),w
  4210  069B  0020               	movlb	0	; select bank0
  4211  069C  00A0               	movwf	___flmul@b
  4212  069D  0021               	movlb	1	; select bank1
  4213  069E  082B               	movf	(logf@R+3)^(0+128),w
  4214  069F  0020               	movlb	0	; select bank0
  4215  06A0  00D2               	movwf	___fladd@b+3
  4216  06A1  0021               	movlb	1	; select bank1
  4217  06A2  082A               	movf	(logf@R+2)^(0+128),w
  4218  06A3  0020               	movlb	0	; select bank0
  4219  06A4  00D1               	movwf	___fladd@b+2
  4220  06A5  0021               	movlb	1	; select bank1
  4221  06A6  0829               	movf	(logf@R+1)^(0+128),w
  4222  06A7  0020               	movlb	0	; select bank0
  4223  06A8  00D0               	movwf	___fladd@b+1
  4224  06A9  0021               	movlb	1	; select bank1
  4225  06AA  0828               	movf	logf@R^(0+128),w
  4226  06AB  0020               	movlb	0	; select bank0
  4227  06AC  00CF               	movwf	___fladd@b
  4228  06AD  0021               	movlb	1	; select bank1
  4229  06AE  0849               	movf	(logf@hfsq+3)^(0+128),w
  4230  06AF  0020               	movlb	0	; select bank0
  4231  06B0  00D6               	movwf	___fladd@a+3
  4232  06B1  0021               	movlb	1	; select bank1
  4233  06B2  0848               	movf	(logf@hfsq+2)^(0+128),w
  4234  06B3  0020               	movlb	0	; select bank0
  4235  06B4  00D5               	movwf	___fladd@a+2
  4236  06B5  0021               	movlb	1	; select bank1
  4237  06B6  0847               	movf	(logf@hfsq+1)^(0+128),w
  4238  06B7  0020               	movlb	0	; select bank0
  4239  06B8  00D4               	movwf	___fladd@a+1
  4240  06B9  0021               	movlb	1	; select bank1
  4241  06BA  0846               	movf	logf@hfsq^(0+128),w
  4242  06BB  0020               	movlb	0	; select bank0
  4243  06BC  00D3               	movwf	___fladd@a
  4244  06BD  318D  25C8  3182   	fcall	___fladd
  4245  06C0  0020               	movlb	0	; select bank0
  4246  06C1  0852               	movf	?___fladd+3,w
  4247  06C2  00A7               	movwf	___flmul@a+3
  4248  06C3  0851               	movf	?___fladd+2,w
  4249  06C4  00A6               	movwf	___flmul@a+2
  4250  06C5  0850               	movf	?___fladd+1,w
  4251  06C6  00A5               	movwf	___flmul@a+1
  4252  06C7  084F               	movf	?___fladd,w
  4253  06C8  00A4               	movwf	___flmul@a
  4254  06C9  3180  2046  3182   	fcall	___flmul
  4255  06CC  0020               	movlb	0	; select bank0
  4256  06CD  0823               	movf	?___flmul+3,w
  4257  06CE  0021               	movlb	1	; select bank1
  4258  06CF  00B7               	movwf	(_logf$1136+3)^(0+128)
  4259  06D0  0020               	movlb	0	; select bank0
  4260  06D1  0822               	movf	?___flmul+2,w
  4261  06D2  0021               	movlb	1	; select bank1
  4262  06D3  00B6               	movwf	(_logf$1136+2)^(0+128)
  4263  06D4  0020               	movlb	0	; select bank0
  4264  06D5  0821               	movf	?___flmul+1,w
  4265  06D6  0021               	movlb	1	; select bank1
  4266  06D7  00B5               	movwf	(_logf$1136+1)^(0+128)
  4267  06D8  0020               	movlb	0	; select bank0
  4268  06D9  0820               	movf	?___flmul,w
  4269  06DA  0021               	movlb	1	; select bank1
  4270  06DB  00B4               	movwf	_logf$1136^(0+128)
  4271  06DC                     l2553:
  4272  06DC  3037               	movlw	55
  4273  06DD  0020               	movlb	0	; select bank0
  4274  06DE  00A3               	movwf	___flmul@b+3
  4275  06DF  3017               	movlw	23
  4276  06E0  00A2               	movwf	___flmul@b+2
  4277  06E1  30F7               	movlw	247
  4278  06E2  00A1               	movwf	___flmul@b+1
  4279  06E3  30D1               	movlw	209
  4280  06E4  00A0               	movwf	___flmul@b
  4281  06E5  0021               	movlb	1	; select bank1
  4282  06E6  084D               	movf	(logf@dk+3)^(0+128),w
  4283  06E7  0020               	movlb	0	; select bank0
  4284  06E8  00A7               	movwf	___flmul@a+3
  4285  06E9  0021               	movlb	1	; select bank1
  4286  06EA  084C               	movf	(logf@dk+2)^(0+128),w
  4287  06EB  0020               	movlb	0	; select bank0
  4288  06EC  00A6               	movwf	___flmul@a+2
  4289  06ED  0021               	movlb	1	; select bank1
  4290  06EE  084B               	movf	(logf@dk+1)^(0+128),w
  4291  06EF  0020               	movlb	0	; select bank0
  4292  06F0  00A5               	movwf	___flmul@a+1
  4293  06F1  0021               	movlb	1	; select bank1
  4294  06F2  084A               	movf	logf@dk^(0+128),w
  4295  06F3  0020               	movlb	0	; select bank0
  4296  06F4  00A4               	movwf	___flmul@a
  4297  06F5  3180  2046  3182   	fcall	___flmul
  4298  06F8  0020               	movlb	0	; select bank0
  4299  06F9  0823               	movf	?___flmul+3,w
  4300  06FA  00D2               	movwf	___fladd@b+3
  4301  06FB  0822               	movf	?___flmul+2,w
  4302  06FC  00D1               	movwf	___fladd@b+2
  4303  06FD  0821               	movf	?___flmul+1,w
  4304  06FE  00D0               	movwf	___fladd@b+1
  4305  06FF  0820               	movf	?___flmul,w
  4306  0700  00CF               	movwf	___fladd@b
  4307  0701  0021               	movlb	1	; select bank1
  4308  0702  0837               	movf	(_logf$1136+3)^(0+128),w
  4309  0703  0020               	movlb	0	; select bank0
  4310  0704  00D6               	movwf	___fladd@a+3
  4311  0705  0021               	movlb	1	; select bank1
  4312  0706  0836               	movf	(_logf$1136+2)^(0+128),w
  4313  0707  0020               	movlb	0	; select bank0
  4314  0708  00D5               	movwf	___fladd@a+2
  4315  0709  0021               	movlb	1	; select bank1
  4316  070A  0835               	movf	(_logf$1136+1)^(0+128),w
  4317  070B  0020               	movlb	0	; select bank0
  4318  070C  00D4               	movwf	___fladd@a+1
  4319  070D  0021               	movlb	1	; select bank1
  4320  070E  0834               	movf	_logf$1136^(0+128),w
  4321  070F  0020               	movlb	0	; select bank0
  4322  0710  00D3               	movwf	___fladd@a
  4323  0711  318D  25C8  3182   	fcall	___fladd
  4324  0714  0020               	movlb	0	; select bank0
  4325  0715  0852               	movf	?___fladd+3,w
  4326  0716  0021               	movlb	1	; select bank1
  4327  0717  00BB               	movwf	(_logf$1137+3)^(0+128)
  4328  0718  0020               	movlb	0	; select bank0
  4329  0719  0851               	movf	?___fladd+2,w
  4330  071A  0021               	movlb	1	; select bank1
  4331  071B  00BA               	movwf	(_logf$1137+2)^(0+128)
  4332  071C  0020               	movlb	0	; select bank0
  4333  071D  0850               	movf	?___fladd+1,w
  4334  071E  0021               	movlb	1	; select bank1
  4335  071F  00B9               	movwf	(_logf$1137+1)^(0+128)
  4336  0720  0020               	movlb	0	; select bank0
  4337  0721  084F               	movf	?___fladd,w
  4338  0722  0021               	movlb	1	; select bank1
  4339  0723  00B8               	movwf	_logf$1137^(0+128)
  4340  0724                     l2555:
  4341  0724  0849               	movf	(logf@hfsq+3)^(0+128),w
  4342  0725  0020               	movlb	0	; select bank0
  4343  0726  00E6               	movwf	___flsub@a+3
  4344  0727  0021               	movlb	1	; select bank1
  4345  0728  0848               	movf	(logf@hfsq+2)^(0+128),w
  4346  0729  0020               	movlb	0	; select bank0
  4347  072A  00E5               	movwf	___flsub@a+2
  4348  072B  0021               	movlb	1	; select bank1
  4349  072C  0847               	movf	(logf@hfsq+1)^(0+128),w
  4350  072D  0020               	movlb	0	; select bank0
  4351  072E  00E4               	movwf	___flsub@a+1
  4352  072F  0021               	movlb	1	; select bank1
  4353  0730  0846               	movf	logf@hfsq^(0+128),w
  4354  0731  0020               	movlb	0	; select bank0
  4355  0732  00E3               	movwf	___flsub@a
  4356  0733  0021               	movlb	1	; select bank1
  4357  0734  083B               	movf	(_logf$1137+3)^(0+128),w
  4358  0735  0020               	movlb	0	; select bank0
  4359  0736  00EA               	movwf	___flsub@b+3
  4360  0737  0021               	movlb	1	; select bank1
  4361  0738  083A               	movf	(_logf$1137+2)^(0+128),w
  4362  0739  0020               	movlb	0	; select bank0
  4363  073A  00E9               	movwf	___flsub@b+2
  4364  073B  0021               	movlb	1	; select bank1
  4365  073C  0839               	movf	(_logf$1137+1)^(0+128),w
  4366  073D  0020               	movlb	0	; select bank0
  4367  073E  00E8               	movwf	___flsub@b+1
  4368  073F  0021               	movlb	1	; select bank1
  4369  0740  0838               	movf	_logf$1137^(0+128),w
  4370  0741  0020               	movlb	0	; select bank0
  4371  0742  00E7               	movwf	___flsub@b
  4372  0743  3196  26B8  3182   	fcall	___flsub
  4373  0746  0020               	movlb	0	; select bank0
  4374  0747  0866               	movf	?___flsub+3,w
  4375  0748  0021               	movlb	1	; select bank1
  4376  0749  00BF               	movwf	(_logf$1138+3)^(0+128)
  4377  074A  0020               	movlb	0	; select bank0
  4378  074B  0865               	movf	?___flsub+2,w
  4379  074C  0021               	movlb	1	; select bank1
  4380  074D  00BE               	movwf	(_logf$1138+2)^(0+128)
  4381  074E  0020               	movlb	0	; select bank0
  4382  074F  0864               	movf	?___flsub+1,w
  4383  0750  0021               	movlb	1	; select bank1
  4384  0751  00BD               	movwf	(_logf$1138+1)^(0+128)
  4385  0752  0020               	movlb	0	; select bank0
  4386  0753  0863               	movf	?___flsub,w
  4387  0754  0021               	movlb	1	; select bank1
  4388  0755  00BC               	movwf	_logf$1138^(0+128)
  4389  0756                     l2557:
  4390  0756  0865               	movf	(logf@f+3)^(0+128),w
  4391  0757  0020               	movlb	0	; select bank0
  4392  0758  00D2               	movwf	___fladd@b+3
  4393  0759  0021               	movlb	1	; select bank1
  4394  075A  0864               	movf	(logf@f+2)^(0+128),w
  4395  075B  0020               	movlb	0	; select bank0
  4396  075C  00D1               	movwf	___fladd@b+2
  4397  075D  0021               	movlb	1	; select bank1
  4398  075E  0863               	movf	(logf@f+1)^(0+128),w
  4399  075F  0020               	movlb	0	; select bank0
  4400  0760  00D0               	movwf	___fladd@b+1
  4401  0761  0021               	movlb	1	; select bank1
  4402  0762  0862               	movf	logf@f^(0+128),w
  4403  0763  0020               	movlb	0	; select bank0
  4404  0764  00CF               	movwf	___fladd@b
  4405  0765  0021               	movlb	1	; select bank1
  4406  0766  083F               	movf	(_logf$1138+3)^(0+128),w
  4407  0767  0020               	movlb	0	; select bank0
  4408  0768  00D6               	movwf	___fladd@a+3
  4409  0769  0021               	movlb	1	; select bank1
  4410  076A  083E               	movf	(_logf$1138+2)^(0+128),w
  4411  076B  0020               	movlb	0	; select bank0
  4412  076C  00D5               	movwf	___fladd@a+2
  4413  076D  0021               	movlb	1	; select bank1
  4414  076E  083D               	movf	(_logf$1138+1)^(0+128),w
  4415  076F  0020               	movlb	0	; select bank0
  4416  0770  00D4               	movwf	___fladd@a+1
  4417  0771  0021               	movlb	1	; select bank1
  4418  0772  083C               	movf	_logf$1138^(0+128),w
  4419  0773  0020               	movlb	0	; select bank0
  4420  0774  00D3               	movwf	___fladd@a
  4421  0775  318D  25C8  3182   	fcall	___fladd
  4422  0778  0020               	movlb	0	; select bank0
  4423  0779  0852               	movf	?___fladd+3,w
  4424  077A  0021               	movlb	1	; select bank1
  4425  077B  00C3               	movwf	(_logf$1139+3)^(0+128)
  4426  077C  0020               	movlb	0	; select bank0
  4427  077D  0851               	movf	?___fladd+2,w
  4428  077E  0021               	movlb	1	; select bank1
  4429  077F  00C2               	movwf	(_logf$1139+2)^(0+128)
  4430  0780  0020               	movlb	0	; select bank0
  4431  0781  0850               	movf	?___fladd+1,w
  4432  0782  0021               	movlb	1	; select bank1
  4433  0783  00C1               	movwf	(_logf$1139+1)^(0+128)
  4434  0784  0020               	movlb	0	; select bank0
  4435  0785  084F               	movf	?___fladd,w
  4436  0786  0021               	movlb	1	; select bank1
  4437  0787  00C0               	movwf	_logf$1139^(0+128)
  4438  0788                     l2559:
  4439  0788  303F               	movlw	63
  4440  0789  0020               	movlb	0	; select bank0
  4441  078A  00A3               	movwf	___flmul@b+3
  4442  078B  3031               	movlw	49
  4443  078C  00A2               	movwf	___flmul@b+2
  4444  078D  3071               	movlw	113
  4445  078E  00A1               	movwf	___flmul@b+1
  4446  078F  3080               	movlw	128
  4447  0790  00A0               	movwf	___flmul@b
  4448  0791  0021               	movlb	1	; select bank1
  4449  0792  084D               	movf	(logf@dk+3)^(0+128),w
  4450  0793  0020               	movlb	0	; select bank0
  4451  0794  00A7               	movwf	___flmul@a+3
  4452  0795  0021               	movlb	1	; select bank1
  4453  0796  084C               	movf	(logf@dk+2)^(0+128),w
  4454  0797  0020               	movlb	0	; select bank0
  4455  0798  00A6               	movwf	___flmul@a+2
  4456  0799  0021               	movlb	1	; select bank1
  4457  079A  084B               	movf	(logf@dk+1)^(0+128),w
  4458  079B  0020               	movlb	0	; select bank0
  4459  079C  00A5               	movwf	___flmul@a+1
  4460  079D  0021               	movlb	1	; select bank1
  4461  079E  084A               	movf	logf@dk^(0+128),w
  4462  079F  0020               	movlb	0	; select bank0
  4463  07A0  00A4               	movwf	___flmul@a
  4464  07A1  3180  2046  3182   	fcall	___flmul
  4465  07A4  0020               	movlb	0	; select bank0
  4466  07A5  0823               	movf	?___flmul+3,w
  4467  07A6  00D2               	movwf	___fladd@b+3
  4468  07A7  0822               	movf	?___flmul+2,w
  4469  07A8  00D1               	movwf	___fladd@b+2
  4470  07A9  0821               	movf	?___flmul+1,w
  4471  07AA  00D0               	movwf	___fladd@b+1
  4472  07AB  0820               	movf	?___flmul,w
  4473  07AC  00CF               	movwf	___fladd@b
  4474  07AD  0021               	movlb	1	; select bank1
  4475  07AE  0843               	movf	(_logf$1139+3)^(0+128),w
  4476  07AF  0020               	movlb	0	; select bank0
  4477  07B0  00D6               	movwf	___fladd@a+3
  4478  07B1  0021               	movlb	1	; select bank1
  4479  07B2  0842               	movf	(_logf$1139+2)^(0+128),w
  4480  07B3  0020               	movlb	0	; select bank0
  4481  07B4  00D5               	movwf	___fladd@a+2
  4482  07B5  0021               	movlb	1	; select bank1
  4483  07B6  0841               	movf	(_logf$1139+1)^(0+128),w
  4484  07B7  0020               	movlb	0	; select bank0
  4485  07B8  00D4               	movwf	___fladd@a+1
  4486  07B9  0021               	movlb	1	; select bank1
  4487  07BA  0840               	movf	_logf$1139^(0+128),w
  4488  07BB  0020               	movlb	0	; select bank0
  4489  07BC  00D3               	movwf	___fladd@a
  4490  07BD  318D  25C8  3182   	fcall	___fladd
  4491  07C0  0020               	movlb	0	; select bank0
  4492  07C1  0852               	movf	?___fladd+3,w
  4493  07C2  00EE               	movwf	?_logf+3
  4494  07C3  0851               	movf	?___fladd+2,w
  4495  07C4  00ED               	movwf	?_logf+2
  4496  07C5  0850               	movf	?___fladd+1,w
  4497  07C6  00EC               	movwf	?_logf+1
  4498  07C7  084F               	movf	?___fladd,w
  4499  07C8  00EB               	movwf	?_logf
  4500  07C9                     l848:
  4501  07C9  0008               	return
  4502  07CA                     __end_of_logf:
  4503                           
  4504                           	psect	text3
  4505  09D4                     __ptext3:	
  4506 ;; *************** function ___xxtofl *****************
  4507 ;; Defined at:
  4508 ;;		line 10 in file "C:\Program Files (x86)\MPLAB X\Compilers\XC8\pic\sources\c99\common\xxtofl.c"
  4509 ;; Parameters:    Size  Location     Type
  4510 ;;  sign            1    wreg     unsigned char 
  4511 ;;  val             4    0[COMMON] long 
  4512 ;; Auto vars:     Size  Location     Type
  4513 ;;  sign            1    8[COMMON] unsigned char 
  4514 ;;  arg             4   10[COMMON] unsigned long 
  4515 ;;  exp             1    9[COMMON] unsigned char 
  4516 ;; Return value:  Size  Location     Type
  4517 ;;                  4    0[COMMON] unsigned char 
  4518 ;; Registers used:
  4519 ;;		wreg, status,2, status,0
  4520 ;; Tracked objects:
  4521 ;;		On entry : 0/0
  4522 ;;		On exit  : 0/0
  4523 ;;		Unchanged: 0/0
  4524 ;; Data sizes:     COMMON   BANK0   BANK1   BANK2   BANK3   BANK4   BANK5   BANK6   BANK7   BANK8   BANK9  BANK10  BANK1
      +1  BANK12
  4525 ;;      Params:         4       0       0       0       0       0       0       0       0       0       0       0       
      +0       0
  4526 ;;      Locals:         6       0       0       0       0       0       0       0       0       0       0       0       
      +0       0
  4527 ;;      Temps:          4       0       0       0       0       0       0       0       0       0       0       0       
      +0       0
  4528 ;;      Totals:        14       0       0       0       0       0       0       0       0       0       0       0       
      +0       0
  4529 ;;Total ram usage:       14 bytes
  4530 ;; Hardware stack levels used: 1
  4531 ;; This function calls:
  4532 ;;		Nothing
  4533 ;; This function is called by:
  4534 ;;		_thermistor_temp
  4535 ;;		_logf
  4536 ;; This function uses a non-reentrant model
  4537 ;;
  4538                           
  4539                           
  4540                           ;psect for function ___xxtofl
  4541  09D4                     ___xxtofl:
  4542                           
  4543                           ;incstack = 0
  4544                           ; Regs used in ___xxtofl: [wreg+status,2+status,0]
  4545                           ;___xxtofl@sign stored from wreg
  4546  09D4  00F8               	movwf	___xxtofl@sign
  4547  09D5                     l2401:
  4548  09D5  0878               	movf	___xxtofl@sign,w
  4549  09D6  1903               	btfsc	3,2
  4550  09D7  29D9               	goto	u2551
  4551  09D8  29DA               	goto	u2550
  4552  09D9                     u2551:
  4553  09D9  29EE               	goto	l2407
  4554  09DA                     u2550:
  4555  09DA                     l2403:
  4556  09DA  1FF3               	btfss	___xxtofl@val+3,7
  4557  09DB  29DD               	goto	u2561
  4558  09DC  29DE               	goto	u2560
  4559  09DD                     u2561:
  4560  09DD  29EE               	goto	l2407
  4561  09DE                     u2560:
  4562  09DE                     l2405:
  4563  09DE  0970               	comf	___xxtofl@val,w
  4564  09DF  00FA               	movwf	___xxtofl@arg
  4565  09E0  0971               	comf	___xxtofl@val+1,w
  4566  09E1  00FB               	movwf	___xxtofl@arg+1
  4567  09E2  0972               	comf	___xxtofl@val+2,w
  4568  09E3  00FC               	movwf	___xxtofl@arg+2
  4569  09E4  0973               	comf	___xxtofl@val+3,w
  4570  09E5  00FD               	movwf	___xxtofl@arg+3
  4571  09E6  0AFA               	incf	___xxtofl@arg,f
  4572  09E7  1903               	skipnz
  4573  09E8  0AFB               	incf	___xxtofl@arg+1,f
  4574  09E9  1903               	skipnz
  4575  09EA  0AFC               	incf	___xxtofl@arg+2,f
  4576  09EB  1903               	skipnz
  4577  09EC  0AFD               	incf	___xxtofl@arg+3,f
  4578  09ED  29F6               	goto	l810
  4579  09EE                     l2407:
  4580  09EE  0873               	movf	___xxtofl@val+3,w
  4581  09EF  00FD               	movwf	___xxtofl@arg+3
  4582  09F0  0872               	movf	___xxtofl@val+2,w
  4583  09F1  00FC               	movwf	___xxtofl@arg+2
  4584  09F2  0871               	movf	___xxtofl@val+1,w
  4585  09F3  00FB               	movwf	___xxtofl@arg+1
  4586  09F4  0870               	movf	___xxtofl@val,w
  4587  09F5  00FA               	movwf	___xxtofl@arg
  4588  09F6                     l810:
  4589  09F6  0873               	movf	___xxtofl@val+3,w
  4590  09F7  0472               	iorwf	___xxtofl@val+2,w
  4591  09F8  0471               	iorwf	___xxtofl@val+1,w
  4592  09F9  0470               	iorwf	___xxtofl@val,w
  4593  09FA  1D03               	skipz
  4594  09FB  29FD               	goto	u2571
  4595  09FC  29FE               	goto	u2570
  4596  09FD                     u2571:
  4597  09FD  2A07               	goto	l2413
  4598  09FE                     u2570:
  4599  09FE                     l2409:
  4600  09FE  3000               	movlw	0
  4601  09FF  00F3               	movwf	?___xxtofl+3
  4602  0A00  3000               	movlw	0
  4603  0A01  00F2               	movwf	?___xxtofl+2
  4604  0A02  3000               	movlw	0
  4605  0A03  00F1               	movwf	?___xxtofl+1
  4606  0A04  3000               	movlw	0
  4607  0A05  00F0               	movwf	?___xxtofl
  4608  0A06  2A7F               	goto	l812
  4609  0A07                     l2413:
  4610  0A07  3096               	movlw	150
  4611  0A08  00F4               	movwf	??___xxtofl
  4612  0A09  0874               	movf	??___xxtofl,w
  4613  0A0A  00F9               	movwf	___xxtofl@exp
  4614  0A0B  2A17               	goto	l2417
  4615  0A0C                     l2415:
  4616  0A0C  3001               	movlw	1
  4617  0A0D  00F4               	movwf	??___xxtofl
  4618  0A0E  0874               	movf	??___xxtofl,w
  4619  0A0F  07F9               	addwf	___xxtofl@exp,f
  4620  0A10  3001               	movlw	1
  4621  0A11                     u2585:
  4622  0A11  36FD               	lsrf	___xxtofl@arg+3,f
  4623  0A12  0CFC               	rrf	___xxtofl@arg+2,f
  4624  0A13  0CFB               	rrf	___xxtofl@arg+1,f
  4625  0A14  0CFA               	rrf	___xxtofl@arg,f
  4626  0A15  0B89               	decfsz	9,f
  4627  0A16  2A11               	goto	u2585
  4628  0A17                     l2417:
  4629  0A17  30FE               	movlw	254
  4630  0A18  057D               	andwf	___xxtofl@arg+3,w
  4631  0A19  1D03               	btfss	3,2
  4632  0A1A  2A1C               	goto	u2591
  4633  0A1B  2A1D               	goto	u2590
  4634  0A1C                     u2591:
  4635  0A1C  2A0C               	goto	l2415
  4636  0A1D                     u2590:
  4637  0A1D  2A31               	goto	l816
  4638  0A1E                     l2419:
  4639  0A1E  3001               	movlw	1
  4640  0A1F  00F4               	movwf	??___xxtofl
  4641  0A20  0874               	movf	??___xxtofl,w
  4642  0A21  07F9               	addwf	___xxtofl@exp,f
  4643  0A22                     l2421:
  4644  0A22  3001               	movlw	1
  4645  0A23  07FA               	addwf	___xxtofl@arg,f
  4646  0A24  3000               	movlw	0
  4647  0A25  3DFB               	addwfc	___xxtofl@arg+1,f
  4648  0A26  3000               	movlw	0
  4649  0A27  3DFC               	addwfc	___xxtofl@arg+2,f
  4650  0A28  3000               	movlw	0
  4651  0A29  3DFD               	addwfc	___xxtofl@arg+3,f
  4652  0A2A                     l2423:
  4653  0A2A  3001               	movlw	1
  4654  0A2B                     u2605:
  4655  0A2B  36FD               	lsrf	___xxtofl@arg+3,f
  4656  0A2C  0CFC               	rrf	___xxtofl@arg+2,f
  4657  0A2D  0CFB               	rrf	___xxtofl@arg+1,f
  4658  0A2E  0CFA               	rrf	___xxtofl@arg,f
  4659  0A2F  0B89               	decfsz	9,f
  4660  0A30  2A2B               	goto	u2605
  4661  0A31                     l816:
  4662  0A31  30FF               	movlw	255
  4663  0A32  057D               	andwf	___xxtofl@arg+3,w
  4664  0A33  1D03               	btfss	3,2
  4665  0A34  2A36               	goto	u2611
  4666  0A35  2A37               	goto	u2610
  4667  0A36                     u2611:
  4668  0A36  2A1E               	goto	l2419
  4669  0A37                     u2610:
  4670  0A37  2A41               	goto	l2427
  4671  0A38                     l2425:
  4672  0A38  3001               	movlw	1
  4673  0A39  02F9               	subwf	___xxtofl@exp,f
  4674  0A3A  3001               	movlw	1
  4675  0A3B                     u2625:
  4676  0A3B  35FA               	lslf	___xxtofl@arg,f
  4677  0A3C  0DFB               	rlf	___xxtofl@arg+1,f
  4678  0A3D  0DFC               	rlf	___xxtofl@arg+2,f
  4679  0A3E  0DFD               	rlf	___xxtofl@arg+3,f
  4680  0A3F  0B89               	decfsz	9,f
  4681  0A40  2A3B               	goto	u2625
  4682  0A41                     l2427:
  4683  0A41  1BFC               	btfsc	___xxtofl@arg+2,7
  4684  0A42  2A44               	goto	u2631
  4685  0A43  2A45               	goto	u2630
  4686  0A44                     u2631:
  4687  0A44  2A4B               	goto	l823
  4688  0A45                     u2630:
  4689  0A45                     l2429:
  4690  0A45  3002               	movlw	2
  4691  0A46  0279               	subwf	___xxtofl@exp,w
  4692  0A47  1803               	skipnc
  4693  0A48  2A4A               	goto	u2641
  4694  0A49  2A4B               	goto	u2640
  4695  0A4A                     u2641:
  4696  0A4A  2A38               	goto	l2425
  4697  0A4B                     u2640:
  4698  0A4B                     l823:
  4699  0A4B  1879               	btfsc	___xxtofl@exp,0
  4700  0A4C  2A4E               	goto	u2651
  4701  0A4D  2A4F               	goto	u2650
  4702  0A4E                     u2651:
  4703  0A4E  2A57               	goto	l824
  4704  0A4F                     u2650:
  4705  0A4F                     l2431:
  4706  0A4F  30FF               	movlw	255
  4707  0A50  05FA               	andwf	___xxtofl@arg,f
  4708  0A51  30FF               	movlw	255
  4709  0A52  05FB               	andwf	___xxtofl@arg+1,f
  4710  0A53  307F               	movlw	127
  4711  0A54  05FC               	andwf	___xxtofl@arg+2,f
  4712  0A55  30FF               	movlw	255
  4713  0A56  05FD               	andwf	___xxtofl@arg+3,f
  4714  0A57                     l824:
  4715  0A57  1003               	clrc
  4716  0A58  0CF9               	rrf	___xxtofl@exp,f
  4717  0A59                     l2433:
  4718  0A59  0879               	movf	___xxtofl@exp,w
  4719  0A5A  00F4               	movwf	??___xxtofl
  4720  0A5B  01F5               	clrf	??___xxtofl+1
  4721  0A5C  01F6               	clrf	??___xxtofl+2
  4722  0A5D  01F7               	clrf	??___xxtofl+3
  4723  0A5E  3018               	movlw	24
  4724  0A5F                     u2665:
  4725  0A5F  35F4               	lslf	??___xxtofl,f
  4726  0A60  0DF5               	rlf	??___xxtofl+1,f
  4727  0A61  0DF6               	rlf	??___xxtofl+2,f
  4728  0A62  0DF7               	rlf	??___xxtofl+3,f
  4729  0A63                     u2660:
  4730  0A63  0B89               	decfsz	9,f
  4731  0A64  2A5F               	goto	u2665
  4732  0A65  0874               	movf	??___xxtofl,w
  4733  0A66  04FA               	iorwf	___xxtofl@arg,f
  4734  0A67  0875               	movf	??___xxtofl+1,w
  4735  0A68  04FB               	iorwf	___xxtofl@arg+1,f
  4736  0A69  0876               	movf	??___xxtofl+2,w
  4737  0A6A  04FC               	iorwf	___xxtofl@arg+2,f
  4738  0A6B  0877               	movf	??___xxtofl+3,w
  4739  0A6C  04FD               	iorwf	___xxtofl@arg+3,f
  4740  0A6D                     l2435:
  4741  0A6D  0878               	movf	___xxtofl@sign,w
  4742  0A6E  1903               	btfsc	3,2
  4743  0A6F  2A71               	goto	u2671
  4744  0A70  2A72               	goto	u2670
  4745  0A71                     u2671:
  4746  0A71  2A77               	goto	l2441
  4747  0A72                     u2670:
  4748  0A72                     l2437:
  4749  0A72  1FF3               	btfss	___xxtofl@val+3,7
  4750  0A73  2A75               	goto	u2681
  4751  0A74  2A76               	goto	u2680
  4752  0A75                     u2681:
  4753  0A75  2A77               	goto	l2441
  4754  0A76                     u2680:
  4755  0A76                     l2439:
  4756  0A76  17FD               	bsf	___xxtofl@arg+3,7
  4757  0A77                     l2441:
  4758  0A77  087D               	movf	___xxtofl@arg+3,w
  4759  0A78  00F3               	movwf	?___xxtofl+3
  4760  0A79  087C               	movf	___xxtofl@arg+2,w
  4761  0A7A  00F2               	movwf	?___xxtofl+2
  4762  0A7B  087B               	movf	___xxtofl@arg+1,w
  4763  0A7C  00F1               	movwf	?___xxtofl+1
  4764  0A7D  087A               	movf	___xxtofl@arg,w
  4765  0A7E  00F0               	movwf	?___xxtofl
  4766  0A7F                     l812:
  4767  0A7F  0008               	return
  4768  0A80                     __end_of___xxtofl:
  4769                           
  4770                           	psect	text4
  4771  16B8                     __ptext4:	
  4772 ;; *************** function ___flsub *****************
  4773 ;; Defined at:
  4774 ;;		line 242 in file "C:\Program Files (x86)\MPLAB X\Compilers\XC8\pic\sources\c99\common\sprcadd.c"
  4775 ;; Parameters:    Size  Location     Type
  4776 ;;  a               4   67[BANK0 ] unsigned char 
  4777 ;;  b               4   71[BANK0 ] unsigned char 
  4778 ;; Auto vars:     Size  Location     Type
  4779 ;;		None
  4780 ;; Return value:  Size  Location     Type
  4781 ;;                  4   67[BANK0 ] unsigned char 
  4782 ;; Registers used:
  4783 ;;		wreg, status,2, status,0, pclath, cstack
  4784 ;; Tracked objects:
  4785 ;;		On entry : 0/0
  4786 ;;		On exit  : 0/0
  4787 ;;		Unchanged: 0/0
  4788 ;; Data sizes:     COMMON   BANK0   BANK1   BANK2   BANK3   BANK4   BANK5   BANK6   BANK7   BANK8   BANK9  BANK10  BANK1
      +1  BANK12
  4789 ;;      Params:         0       8       0       0       0       0       0       0       0       0       0       0       
      +0       0
  4790 ;;      Locals:         0       0       0       0       0       0       0       0       0       0       0       0       
      +0       0
  4791 ;;      Temps:          0       0       0       0       0       0       0       0       0       0       0       0       
      +0       0
  4792 ;;      Totals:         0       8       0       0       0       0       0       0       0       0       0       0       
      +0       0
  4793 ;;Total ram usage:        8 bytes
  4794 ;; Hardware stack levels used: 1
  4795 ;; Hardware stack levels required when called: 1
  4796 ;; This function calls:
  4797 ;;		___fladd
  4798 ;; This function is called by:
  4799 ;;		_thermistor_temp
  4800 ;;		_logf
  4801 ;; This function uses a non-reentrant model
  4802 ;;
  4803                           
  4804                           
  4805                           ;psect for function ___flsub
  4806  16B8                     ___flsub:
  4807  16B8                     l2115:	
  4808                           ;incstack = 0
  4809                           ; Regs used in ___flsub: [wreg+status,2+status,0+pclath+cstack]
  4810                           
  4811  16B8  3080               	movlw	128
  4812  16B9  0020               	movlb	0	; select bank0
  4813  16BA  06E6               	xorwf	___flsub@a+3,f
  4814  16BB                     l2117:
  4815  16BB  086A               	movf	___flsub@b+3,w
  4816  16BC  00D2               	movwf	___fladd@b+3
  4817  16BD  0869               	movf	___flsub@b+2,w
  4818  16BE  00D1               	movwf	___fladd@b+2
  4819  16BF  0868               	movf	___flsub@b+1,w
  4820  16C0  00D0               	movwf	___fladd@b+1
  4821  16C1  0867               	movf	___flsub@b,w
  4822  16C2  00CF               	movwf	___fladd@b
  4823  16C3  0866               	movf	___flsub@a+3,w
  4824  16C4  00D6               	movwf	___fladd@a+3
  4825  16C5  0865               	movf	___flsub@a+2,w
  4826  16C6  00D5               	movwf	___fladd@a+2
  4827  16C7  0864               	movf	___flsub@a+1,w
  4828  16C8  00D4               	movwf	___fladd@a+1
  4829  16C9  0863               	movf	___flsub@a,w
  4830  16CA  00D3               	movwf	___fladd@a
  4831  16CB  318D  25C8  3196   	fcall	___fladd
  4832  16CE  0020               	movlb	0	; select bank0
  4833  16CF  0852               	movf	?___fladd+3,w
  4834  16D0  00E6               	movwf	?___flsub+3
  4835  16D1  0851               	movf	?___fladd+2,w
  4836  16D2  00E5               	movwf	?___flsub+2
  4837  16D3  0850               	movf	?___fladd+1,w
  4838  16D4  00E4               	movwf	?___flsub+1
  4839  16D5  084F               	movf	?___fladd,w
  4840  16D6  00E3               	movwf	?___flsub
  4841  16D7                     l716:
  4842  16D7  0008               	return
  4843  16D8                     __end_of___flsub:
  4844                           
  4845                           	psect	text5
  4846  0DC8                     __ptext5:	
  4847 ;; *************** function ___fladd *****************
  4848 ;; Defined at:
  4849 ;;		line 10 in file "C:\Program Files (x86)\MPLAB X\Compilers\XC8\pic\sources\c99\common\sprcadd.c"
  4850 ;; Parameters:    Size  Location     Type
  4851 ;;  b               4   47[BANK0 ] unsigned char 
  4852 ;;  a               4   51[BANK0 ] unsigned char 
  4853 ;; Auto vars:     Size  Location     Type
  4854 ;;  grs             1   66[BANK0 ] unsigned char 
  4855 ;;  bexp            1   65[BANK0 ] unsigned char 
  4856 ;;  aexp            1   64[BANK0 ] unsigned char 
  4857 ;;  signs           1   63[BANK0 ] unsigned char 
  4858 ;; Return value:  Size  Location     Type
  4859 ;;                  4   47[BANK0 ] unsigned char 
  4860 ;; Registers used:
  4861 ;;		wreg, status,2, status,0
  4862 ;; Tracked objects:
  4863 ;;		On entry : 0/0
  4864 ;;		On exit  : 0/0
  4865 ;;		Unchanged: 0/0
  4866 ;; Data sizes:     COMMON   BANK0   BANK1   BANK2   BANK3   BANK4   BANK5   BANK6   BANK7   BANK8   BANK9  BANK10  BANK1
      +1  BANK12
  4867 ;;      Params:         0       8       0       0       0       0       0       0       0       0       0       0       
      +0       0
  4868 ;;      Locals:         0       4       0       0       0       0       0       0       0       0       0       0       
      +0       0
  4869 ;;      Temps:          0       8       0       0       0       0       0       0       0       0       0       0       
      +0       0
  4870 ;;      Totals:         0      20       0       0       0       0       0       0       0       0       0       0       
      +0       0
  4871 ;;Total ram usage:       20 bytes
  4872 ;; Hardware stack levels used: 1
  4873 ;; This function calls:
  4874 ;;		Nothing
  4875 ;; This function is called by:
  4876 ;;		_thermistor_temp
  4877 ;;		___flsub
  4878 ;;		_logf
  4879 ;; This function uses a non-reentrant model
  4880 ;;
  4881                           
  4882                           
  4883                           ;psect for function ___fladd
  4884  0DC8                     ___fladd:
  4885  0DC8                     l1871:	
  4886                           ;incstack = 0
  4887                           ; Regs used in ___fladd: [wreg+status,2+status,0]
  4888                           
  4889  0DC8  0020               	movlb	0	; select bank0
  4890  0DC9  0852               	movf	___fladd@b+3,w
  4891  0DCA  3980               	andlw	128
  4892  0DCB  00D7               	movwf	??___fladd
  4893  0DCC  0857               	movf	??___fladd,w
  4894  0DCD  00DF               	movwf	___fladd@signs
  4895  0DCE                     l1873:
  4896  0DCE  3552               	lslf	___fladd@b+3,w
  4897  0DCF  00D7               	movwf	??___fladd
  4898  0DD0  0857               	movf	??___fladd,w
  4899  0DD1  00E1               	movwf	___fladd@bexp
  4900  0DD2                     l1875:
  4901  0DD2  1FD1               	btfss	___fladd@b+2,7
  4902  0DD3  2DD5               	goto	u1521
  4903  0DD4  2DD6               	goto	u1520
  4904  0DD5                     u1521:
  4905  0DD5  2DD7               	goto	l1879
  4906  0DD6                     u1520:
  4907  0DD6                     l1877:
  4908  0DD6  1461               	bsf	___fladd@bexp,0
  4909  0DD7                     l1879:
  4910  0DD7  0861               	movf	___fladd@bexp,w
  4911  0DD8  1903               	btfsc	3,2
  4912  0DD9  2DDB               	goto	u1531
  4913  0DDA  2DDC               	goto	u1530
  4914  0DDB                     u1531:
  4915  0DDB  2DEC               	goto	l1889
  4916  0DDC                     u1530:
  4917  0DDC                     l1881:
  4918  0DDC  0A61               	incf	___fladd@bexp,w
  4919  0DDD  1D03               	btfss	3,2
  4920  0DDE  2DE0               	goto	u1541
  4921  0DDF  2DE1               	goto	u1540
  4922  0DE0                     u1541:
  4923  0DE0  2DE9               	goto	l1885
  4924  0DE1                     u1540:
  4925  0DE1                     l1883:
  4926  0DE1  3000               	movlw	0
  4927  0DE2  00D2               	movwf	___fladd@b+3
  4928  0DE3  3000               	movlw	0
  4929  0DE4  00D1               	movwf	___fladd@b+2
  4930  0DE5  3000               	movlw	0
  4931  0DE6  00D0               	movwf	___fladd@b+1
  4932  0DE7  3000               	movlw	0
  4933  0DE8  00CF               	movwf	___fladd@b
  4934  0DE9                     l1885:
  4935  0DE9  17D1               	bsf	___fladd@b+2,7
  4936  0DEA                     l1887:
  4937  0DEA  01D2               	clrf	___fladd@b+3
  4938  0DEB  2DF4               	goto	l1891
  4939  0DEC                     l1889:
  4940  0DEC  3000               	movlw	0
  4941  0DED  00D2               	movwf	___fladd@b+3
  4942  0DEE  3000               	movlw	0
  4943  0DEF  00D1               	movwf	___fladd@b+2
  4944  0DF0  3000               	movlw	0
  4945  0DF1  00D0               	movwf	___fladd@b+1
  4946  0DF2  3000               	movlw	0
  4947  0DF3  00CF               	movwf	___fladd@b
  4948  0DF4                     l1891:
  4949  0DF4  0856               	movf	___fladd@a+3,w
  4950  0DF5  3980               	andlw	128
  4951  0DF6  00D7               	movwf	??___fladd
  4952  0DF7  0857               	movf	??___fladd,w
  4953  0DF8  00E0               	movwf	___fladd@aexp
  4954  0DF9                     l1893:
  4955  0DF9  0860               	movf	___fladd@aexp,w
  4956  0DFA  065F               	xorwf	___fladd@signs,w
  4957  0DFB  1903               	skipnz
  4958  0DFC  2DFE               	goto	u1551
  4959  0DFD  2DFF               	goto	u1550
  4960  0DFE                     u1551:
  4961  0DFE  2E00               	goto	l1897
  4962  0DFF                     u1550:
  4963  0DFF                     l1895:
  4964  0DFF  175F               	bsf	___fladd@signs,6
  4965  0E00                     l1897:
  4966  0E00  3556               	lslf	___fladd@a+3,w
  4967  0E01  00D7               	movwf	??___fladd
  4968  0E02  0857               	movf	??___fladd,w
  4969  0E03  00E0               	movwf	___fladd@aexp
  4970  0E04                     l1899:
  4971  0E04  1FD5               	btfss	___fladd@a+2,7
  4972  0E05  2E07               	goto	u1561
  4973  0E06  2E08               	goto	u1560
  4974  0E07                     u1561:
  4975  0E07  2E09               	goto	l1903
  4976  0E08                     u1560:
  4977  0E08                     l1901:
  4978  0E08  1460               	bsf	___fladd@aexp,0
  4979  0E09                     l1903:
  4980  0E09  0860               	movf	___fladd@aexp,w
  4981  0E0A  1903               	btfsc	3,2
  4982  0E0B  2E0D               	goto	u1571
  4983  0E0C  2E0E               	goto	u1570
  4984  0E0D                     u1571:
  4985  0E0D  2E1E               	goto	l1913
  4986  0E0E                     u1570:
  4987  0E0E                     l1905:
  4988  0E0E  0A60               	incf	___fladd@aexp,w
  4989  0E0F  1D03               	btfss	3,2
  4990  0E10  2E12               	goto	u1581
  4991  0E11  2E13               	goto	u1580
  4992  0E12                     u1581:
  4993  0E12  2E1B               	goto	l1909
  4994  0E13                     u1580:
  4995  0E13                     l1907:
  4996  0E13  3000               	movlw	0
  4997  0E14  00D6               	movwf	___fladd@a+3
  4998  0E15  3000               	movlw	0
  4999  0E16  00D5               	movwf	___fladd@a+2
  5000  0E17  3000               	movlw	0
  5001  0E18  00D4               	movwf	___fladd@a+1
  5002  0E19  3000               	movlw	0
  5003  0E1A  00D3               	movwf	___fladd@a
  5004  0E1B                     l1909:
  5005  0E1B  17D5               	bsf	___fladd@a+2,7
  5006  0E1C                     l1911:
  5007  0E1C  01D6               	clrf	___fladd@a+3
  5008  0E1D  2E26               	goto	l670
  5009  0E1E                     l1913:
  5010  0E1E  3000               	movlw	0
  5011  0E1F  00D6               	movwf	___fladd@a+3
  5012  0E20  3000               	movlw	0
  5013  0E21  00D5               	movwf	___fladd@a+2
  5014  0E22  3000               	movlw	0
  5015  0E23  00D4               	movwf	___fladd@a+1
  5016  0E24  3000               	movlw	0
  5017  0E25  00D3               	movwf	___fladd@a
  5018  0E26                     l670:
  5019  0E26  0861               	movf	___fladd@bexp,w
  5020  0E27  0260               	subwf	___fladd@aexp,w
  5021  0E28  1803               	skipnc
  5022  0E29  2E2B               	goto	u1591
  5023  0E2A  2E2C               	goto	u1590
  5024  0E2B                     u1591:
  5025  0E2B  2E70               	goto	l1949
  5026  0E2C                     u1590:
  5027  0E2C                     l1915:
  5028  0E2C  1F5F               	btfss	___fladd@signs,6
  5029  0E2D  2E2F               	goto	u1601
  5030  0E2E  2E30               	goto	u1600
  5031  0E2F                     u1601:
  5032  0E2F  2E34               	goto	l1919
  5033  0E30                     u1600:
  5034  0E30                     l1917:
  5035  0E30  3080               	movlw	128
  5036  0E31  00D7               	movwf	??___fladd
  5037  0E32  0857               	movf	??___fladd,w
  5038  0E33  06DF               	xorwf	___fladd@signs,f
  5039  0E34                     l1919:
  5040  0E34  0861               	movf	___fladd@bexp,w
  5041  0E35  00D7               	movwf	??___fladd
  5042  0E36  0857               	movf	??___fladd,w
  5043  0E37  00E2               	movwf	___fladd@grs
  5044  0E38                     l1921:
  5045  0E38  0860               	movf	___fladd@aexp,w
  5046  0E39  00D7               	movwf	??___fladd
  5047  0E3A  0857               	movf	??___fladd,w
  5048  0E3B  00E1               	movwf	___fladd@bexp
  5049  0E3C                     l1923:
  5050  0E3C  0862               	movf	___fladd@grs,w
  5051  0E3D  00D7               	movwf	??___fladd
  5052  0E3E  0857               	movf	??___fladd,w
  5053  0E3F  00E0               	movwf	___fladd@aexp
  5054  0E40                     l1925:
  5055  0E40  084F               	movf	___fladd@b,w
  5056  0E41  00D7               	movwf	??___fladd
  5057  0E42  0857               	movf	??___fladd,w
  5058  0E43  00E2               	movwf	___fladd@grs
  5059  0E44                     l1927:
  5060  0E44  0853               	movf	___fladd@a,w
  5061  0E45  00D7               	movwf	??___fladd
  5062  0E46  0857               	movf	??___fladd,w
  5063  0E47  00CF               	movwf	___fladd@b
  5064  0E48                     l1929:
  5065  0E48  0862               	movf	___fladd@grs,w
  5066  0E49  00D7               	movwf	??___fladd
  5067  0E4A  0857               	movf	??___fladd,w
  5068  0E4B  00D3               	movwf	___fladd@a
  5069  0E4C                     l1931:
  5070  0E4C  0850               	movf	___fladd@b+1,w
  5071  0E4D  00D7               	movwf	??___fladd
  5072  0E4E  0857               	movf	??___fladd,w
  5073  0E4F  00E2               	movwf	___fladd@grs
  5074  0E50                     l1933:
  5075  0E50  0854               	movf	___fladd@a+1,w
  5076  0E51  00D7               	movwf	??___fladd
  5077  0E52  0857               	movf	??___fladd,w
  5078  0E53  00D0               	movwf	___fladd@b+1
  5079  0E54                     l1935:
  5080  0E54  0862               	movf	___fladd@grs,w
  5081  0E55  00D7               	movwf	??___fladd
  5082  0E56  0857               	movf	??___fladd,w
  5083  0E57  00D4               	movwf	___fladd@a+1
  5084  0E58                     l1937:
  5085  0E58  0851               	movf	___fladd@b+2,w
  5086  0E59  00D7               	movwf	??___fladd
  5087  0E5A  0857               	movf	??___fladd,w
  5088  0E5B  00E2               	movwf	___fladd@grs
  5089  0E5C                     l1939:
  5090  0E5C  0855               	movf	___fladd@a+2,w
  5091  0E5D  00D7               	movwf	??___fladd
  5092  0E5E  0857               	movf	??___fladd,w
  5093  0E5F  00D1               	movwf	___fladd@b+2
  5094  0E60                     l1941:
  5095  0E60  0862               	movf	___fladd@grs,w
  5096  0E61  00D7               	movwf	??___fladd
  5097  0E62  0857               	movf	??___fladd,w
  5098  0E63  00D5               	movwf	___fladd@a+2
  5099  0E64                     l1943:
  5100  0E64  0852               	movf	___fladd@b+3,w
  5101  0E65  00D7               	movwf	??___fladd
  5102  0E66  0857               	movf	??___fladd,w
  5103  0E67  00E2               	movwf	___fladd@grs
  5104  0E68                     l1945:
  5105  0E68  0856               	movf	___fladd@a+3,w
  5106  0E69  00D7               	movwf	??___fladd
  5107  0E6A  0857               	movf	??___fladd,w
  5108  0E6B  00D2               	movwf	___fladd@b+3
  5109  0E6C                     l1947:
  5110  0E6C  0862               	movf	___fladd@grs,w
  5111  0E6D  00D7               	movwf	??___fladd
  5112  0E6E  0857               	movf	??___fladd,w
  5113  0E6F  00D6               	movwf	___fladd@a+3
  5114  0E70                     l1949:
  5115  0E70  01E2               	clrf	___fladd@grs
  5116  0E71                     l1951:
  5117  0E71  0860               	movf	___fladd@aexp,w
  5118  0E72  00D7               	movwf	??___fladd
  5119  0E73  01D8               	clrf	??___fladd+1
  5120  0E74  0858               	movf	??___fladd+1,w
  5121  0E75  00DA               	movwf	??___fladd+3
  5122  0E76  0861               	movf	___fladd@bexp,w
  5123  0E77  0257               	subwf	??___fladd,w
  5124  0E78  00D9               	movwf	??___fladd+2
  5125  0E79  1C03               	skipc
  5126  0E7A  03DA               	decf	??___fladd+3,f
  5127  0E7B  085A               	movf	??___fladd+3,w
  5128  0E7C  3A80               	xorlw	128
  5129  0E7D  00DB               	movwf	??___fladd+4
  5130  0E7E  3080               	movlw	128
  5131  0E7F  025B               	subwf	??___fladd+4,w
  5132  0E80  1D03               	skipz
  5133  0E81  2E84               	goto	u1615
  5134  0E82  301A               	movlw	26
  5135  0E83  0259               	subwf	??___fladd+2,w
  5136  0E84                     u1615:
  5137  0E84  1C03               	skipc
  5138  0E85  2E87               	goto	u1611
  5139  0E86  2E88               	goto	u1610
  5140  0E87                     u1611:
  5141  0E87  2EC0               	goto	l1967
  5142  0E88                     u1610:
  5143  0E88                     l1953:
  5144  0E88  0020               	movlb	0	; select bank0
  5145  0E89  0852               	movf	___fladd@b+3,w
  5146  0E8A  0451               	iorwf	___fladd@b+2,w
  5147  0E8B  0450               	iorwf	___fladd@b+1,w
  5148  0E8C  044F               	iorwf	___fladd@b,w
  5149  0E8D  1D03               	skipz
  5150  0E8E  2E90               	goto	u1621
  5151  0E8F  2E92               	goto	u1620
  5152  0E90                     u1621:
  5153  0E90  3001               	movlw	1
  5154  0E91  2E93               	goto	u1630
  5155  0E92                     u1620:
  5156  0E92  3000               	movlw	0
  5157  0E93                     u1630:
  5158  0E93  00D7               	movwf	??___fladd
  5159  0E94  0857               	movf	??___fladd,w
  5160  0E95  00E2               	movwf	___fladd@grs
  5161  0E96  3000               	movlw	0
  5162  0E97  00D2               	movwf	___fladd@b+3
  5163  0E98  3000               	movlw	0
  5164  0E99  00D1               	movwf	___fladd@b+2
  5165  0E9A  3000               	movlw	0
  5166  0E9B  00D0               	movwf	___fladd@b+1
  5167  0E9C  3000               	movlw	0
  5168  0E9D  00CF               	movwf	___fladd@b
  5169  0E9E  0860               	movf	___fladd@aexp,w
  5170  0E9F  00D7               	movwf	??___fladd
  5171  0EA0  0857               	movf	??___fladd,w
  5172  0EA1  00E1               	movwf	___fladd@bexp
  5173  0EA2  2EC7               	goto	l674
  5174  0EA3                     l676:
  5175  0EA3  1C62               	btfss	___fladd@grs,0
  5176  0EA4  2EA6               	goto	u1641
  5177  0EA5  2EA7               	goto	u1640
  5178  0EA6                     u1641:
  5179  0EA6  2EAD               	goto	l1957
  5180  0EA7                     u1640:
  5181  0EA7                     l1955:
  5182  0EA7  3662               	lsrf	___fladd@grs,w
  5183  0EA8  3801               	iorlw	1
  5184  0EA9  00D7               	movwf	??___fladd
  5185  0EAA  0857               	movf	??___fladd,w
  5186  0EAB  00E2               	movwf	___fladd@grs
  5187  0EAC  2EAF               	goto	l1959
  5188  0EAD                     l1957:
  5189  0EAD  1003               	clrc
  5190  0EAE  0CE2               	rrf	___fladd@grs,f
  5191  0EAF                     l1959:
  5192  0EAF  1C4F               	btfss	___fladd@b,0
  5193  0EB0  2EB2               	goto	u1651
  5194  0EB1  2EB3               	goto	u1650
  5195  0EB2                     u1651:
  5196  0EB2  2EB4               	goto	l1963
  5197  0EB3                     u1650:
  5198  0EB3                     l1961:
  5199  0EB3  17E2               	bsf	___fladd@grs,7
  5200  0EB4                     l1963:
  5201  0EB4  3001               	movlw	1
  5202  0EB5  00D7               	movwf	??___fladd
  5203  0EB6                     u1665:
  5204  0EB6  37D2               	asrf	___fladd@b+3,f
  5205  0EB7  0CD1               	rrf	___fladd@b+2,f
  5206  0EB8  0CD0               	rrf	___fladd@b+1,f
  5207  0EB9  0CCF               	rrf	___fladd@b,f
  5208  0EBA  0BD7               	decfsz	??___fladd& (0+127),f
  5209  0EBB  2EB6               	goto	u1665
  5210  0EBC                     l1965:
  5211  0EBC  3001               	movlw	1
  5212  0EBD  00D7               	movwf	??___fladd
  5213  0EBE  0857               	movf	??___fladd,w
  5214  0EBF  07E1               	addwf	___fladd@bexp,f
  5215  0EC0                     l1967:
  5216  0EC0  0020               	movlb	0	; select bank0
  5217  0EC1  0860               	movf	___fladd@aexp,w
  5218  0EC2  0261               	subwf	___fladd@bexp,w
  5219  0EC3  1C03               	skipc
  5220  0EC4  2EC6               	goto	u1671
  5221  0EC5  2EC7               	goto	u1670
  5222  0EC6                     u1671:
  5223  0EC6  2EA3               	goto	l676
  5224  0EC7                     u1670:
  5225  0EC7                     l674:
  5226  0EC7  1B5F               	btfsc	___fladd@signs,6
  5227  0EC8  2ECA               	goto	u1681
  5228  0EC9  2ECB               	goto	u1680
  5229  0ECA                     u1681:
  5230  0ECA  2F03               	goto	l1993
  5231  0ECB                     u1680:
  5232  0ECB                     l1969:
  5233  0ECB  0861               	movf	___fladd@bexp,w
  5234  0ECC  1D03               	btfss	3,2
  5235  0ECD  2ECF               	goto	u1691
  5236  0ECE  2ED0               	goto	u1690
  5237  0ECF                     u1691:
  5238  0ECF  2ED9               	goto	l1975
  5239  0ED0                     u1690:
  5240  0ED0                     l1971:
  5241  0ED0  3000               	movlw	0
  5242  0ED1  00D2               	movwf	?___fladd+3
  5243  0ED2  3000               	movlw	0
  5244  0ED3  00D1               	movwf	?___fladd+2
  5245  0ED4  3000               	movlw	0
  5246  0ED5  00D0               	movwf	?___fladd+1
  5247  0ED6  3000               	movlw	0
  5248  0ED7  00CF               	movwf	?___fladd
  5249  0ED8  2FFF               	goto	l683
  5250  0ED9                     l1975:
  5251  0ED9  0853               	movf	___fladd@a,w
  5252  0EDA  07CF               	addwf	___fladd@b,f
  5253  0EDB  0854               	movf	___fladd@a+1,w
  5254  0EDC  3DD0               	addwfc	___fladd@b+1,f
  5255  0EDD  0855               	movf	___fladd@a+2,w
  5256  0EDE  3DD1               	addwfc	___fladd@b+2,f
  5257  0EDF  0856               	movf	___fladd@a+3,w
  5258  0EE0  3DD2               	addwfc	___fladd@b+3,f
  5259  0EE1                     l1977:
  5260  0EE1  1C52               	btfss	___fladd@b+3,0
  5261  0EE2  2EE4               	goto	u1701
  5262  0EE3  2EE5               	goto	u1700
  5263  0EE4                     u1701:
  5264  0EE4  2F8F               	goto	l2027
  5265  0EE5                     u1700:
  5266  0EE5                     l1979:
  5267  0EE5  1C62               	btfss	___fladd@grs,0
  5268  0EE6  2EE8               	goto	u1711
  5269  0EE7  2EE9               	goto	u1710
  5270  0EE8                     u1711:
  5271  0EE8  2EEF               	goto	l1983
  5272  0EE9                     u1710:
  5273  0EE9                     l1981:
  5274  0EE9  3662               	lsrf	___fladd@grs,w
  5275  0EEA  3801               	iorlw	1
  5276  0EEB  00D7               	movwf	??___fladd
  5277  0EEC  0857               	movf	??___fladd,w
  5278  0EED  00E2               	movwf	___fladd@grs
  5279  0EEE  2EF1               	goto	l1985
  5280  0EEF                     l1983:
  5281  0EEF  1003               	clrc
  5282  0EF0  0CE2               	rrf	___fladd@grs,f
  5283  0EF1                     l1985:
  5284  0EF1  1C4F               	btfss	___fladd@b,0
  5285  0EF2  2EF4               	goto	u1721
  5286  0EF3  2EF5               	goto	u1720
  5287  0EF4                     u1721:
  5288  0EF4  2EF6               	goto	l1989
  5289  0EF5                     u1720:
  5290  0EF5                     l1987:
  5291  0EF5  17E2               	bsf	___fladd@grs,7
  5292  0EF6                     l1989:
  5293  0EF6  3001               	movlw	1
  5294  0EF7  00D7               	movwf	??___fladd
  5295  0EF8                     u1735:
  5296  0EF8  37D2               	asrf	___fladd@b+3,f
  5297  0EF9  0CD1               	rrf	___fladd@b+2,f
  5298  0EFA  0CD0               	rrf	___fladd@b+1,f
  5299  0EFB  0CCF               	rrf	___fladd@b,f
  5300  0EFC  0BD7               	decfsz	??___fladd& (0+127),f
  5301  0EFD  2EF8               	goto	u1735
  5302  0EFE                     l1991:
  5303  0EFE  3001               	movlw	1
  5304  0EFF  00D7               	movwf	??___fladd
  5305  0F00  0857               	movf	??___fladd,w
  5306  0F01  07E1               	addwf	___fladd@bexp,f
  5307  0F02  2F8F               	goto	l2027
  5308  0F03                     l1993:
  5309  0F03  0852               	movf	___fladd@b+3,w
  5310  0F04  3A80               	xorlw	128
  5311  0F05  00D7               	movwf	??___fladd
  5312  0F06  0856               	movf	___fladd@a+3,w
  5313  0F07  3A80               	xorlw	128
  5314  0F08  0257               	subwf	??___fladd,w
  5315  0F09  1D03               	skipz
  5316  0F0A  2F15               	goto	u1743
  5317  0F0B  0855               	movf	___fladd@a+2,w
  5318  0F0C  0251               	subwf	___fladd@b+2,w
  5319  0F0D  1D03               	skipz
  5320  0F0E  2F15               	goto	u1743
  5321  0F0F  0854               	movf	___fladd@a+1,w
  5322  0F10  0250               	subwf	___fladd@b+1,w
  5323  0F11  1D03               	skipz
  5324  0F12  2F15               	goto	u1743
  5325  0F13  0853               	movf	___fladd@a,w
  5326  0F14  024F               	subwf	___fladd@b,w
  5327  0F15                     u1743:
  5328  0F15  1803               	skipnc
  5329  0F16  2F18               	goto	u1741
  5330  0F17  2F19               	goto	u1740
  5331  0F18                     u1741:
  5332  0F18  2F51               	goto	l2003
  5333  0F19                     u1740:
  5334  0F19                     l1995:
  5335  0F19  30FF               	movlw	255
  5336  0F1A  00D7               	movwf	??___fladd
  5337  0F1B  30FF               	movlw	255
  5338  0F1C  00D8               	movwf	??___fladd+1
  5339  0F1D  30FF               	movlw	255
  5340  0F1E  00D9               	movwf	??___fladd+2
  5341  0F1F  30FF               	movlw	255
  5342  0F20  00DA               	movwf	??___fladd+3
  5343  0F21  084F               	movf	___fladd@b,w
  5344  0F22  0253               	subwf	___fladd@a,w
  5345  0F23  00DB               	movwf	??___fladd+4
  5346  0F24  0850               	movf	___fladd@b+1,w
  5347  0F25  3B54               	subwfb	___fladd@a+1,w
  5348  0F26  00DC               	movwf	??___fladd+5
  5349  0F27  0851               	movf	___fladd@b+2,w
  5350  0F28  3B55               	subwfb	___fladd@a+2,w
  5351  0F29  00DD               	movwf	??___fladd+6
  5352  0F2A  0852               	movf	___fladd@b+3,w
  5353  0F2B  3B56               	subwfb	___fladd@a+3,w
  5354  0F2C  00DE               	movwf	??___fladd+7
  5355  0F2D  085B               	movf	??___fladd+4,w
  5356  0F2E  07D7               	addwf	??___fladd,f
  5357  0F2F  085C               	movf	??___fladd+5,w
  5358  0F30  3DD8               	addwfc	??___fladd+1,f
  5359  0F31  085D               	movf	??___fladd+6,w
  5360  0F32  3DD9               	addwfc	??___fladd+2,f
  5361  0F33  085E               	movf	??___fladd+7,w
  5362  0F34  3DDA               	addwfc	??___fladd+3,f
  5363  0F35  085A               	movf	??___fladd+3,w
  5364  0F36  00D2               	movwf	___fladd@b+3
  5365  0F37  0859               	movf	??___fladd+2,w
  5366  0F38  00D1               	movwf	___fladd@b+2
  5367  0F39  0858               	movf	??___fladd+1,w
  5368  0F3A  00D0               	movwf	___fladd@b+1
  5369  0F3B  0857               	movf	??___fladd,w
  5370  0F3C  00CF               	movwf	___fladd@b
  5371  0F3D                     l1997:
  5372  0F3D  3080               	movlw	128
  5373  0F3E  00D7               	movwf	??___fladd
  5374  0F3F  0857               	movf	??___fladd,w
  5375  0F40  06DF               	xorwf	___fladd@signs,f
  5376  0F41  09E2               	comf	___fladd@grs,f
  5377  0F42  0AE2               	incf	___fladd@grs,f
  5378  0F43                     l1999:
  5379  0F43  0862               	movf	___fladd@grs,w
  5380  0F44  1D03               	btfss	3,2
  5381  0F45  2F47               	goto	u1751
  5382  0F46  2F48               	goto	u1750
  5383  0F47                     u1751:
  5384  0F47  2F59               	goto	l691
  5385  0F48                     u1750:
  5386  0F48                     l2001:
  5387  0F48  3001               	movlw	1
  5388  0F49  07CF               	addwf	___fladd@b,f
  5389  0F4A  3000               	movlw	0
  5390  0F4B  3DD0               	addwfc	___fladd@b+1,f
  5391  0F4C  3000               	movlw	0
  5392  0F4D  3DD1               	addwfc	___fladd@b+2,f
  5393  0F4E  3000               	movlw	0
  5394  0F4F  3DD2               	addwfc	___fladd@b+3,f
  5395  0F50  2F59               	goto	l691
  5396  0F51                     l2003:
  5397  0F51  0853               	movf	___fladd@a,w
  5398  0F52  02CF               	subwf	___fladd@b,f
  5399  0F53  0854               	movf	___fladd@a+1,w
  5400  0F54  3BD0               	subwfb	___fladd@b+1,f
  5401  0F55  0855               	movf	___fladd@a+2,w
  5402  0F56  3BD1               	subwfb	___fladd@b+2,f
  5403  0F57  0856               	movf	___fladd@a+3,w
  5404  0F58  3BD2               	subwfb	___fladd@b+3,f
  5405  0F59                     l691:
  5406  0F59  0852               	movf	___fladd@b+3,w
  5407  0F5A  0451               	iorwf	___fladd@b+2,w
  5408  0F5B  0450               	iorwf	___fladd@b+1,w
  5409  0F5C  044F               	iorwf	___fladd@b,w
  5410  0F5D  1D03               	skipz
  5411  0F5E  2F60               	goto	u1761
  5412  0F5F  2F61               	goto	u1760
  5413  0F60                     u1761:
  5414  0F60  2F8B               	goto	l2025
  5415  0F61                     u1760:
  5416  0F61                     l2005:
  5417  0F61  0862               	movf	___fladd@grs,w
  5418  0F62  1D03               	btfss	3,2
  5419  0F63  2F65               	goto	u1771
  5420  0F64  2F66               	goto	u1770
  5421  0F65                     u1771:
  5422  0F65  2F8B               	goto	l2025
  5423  0F66                     u1770:
  5424  0F66                     l2007:
  5425  0F66  3000               	movlw	0
  5426  0F67  00D2               	movwf	?___fladd+3
  5427  0F68  3000               	movlw	0
  5428  0F69  00D1               	movwf	?___fladd+2
  5429  0F6A  3000               	movlw	0
  5430  0F6B  00D0               	movwf	?___fladd+1
  5431  0F6C  3000               	movlw	0
  5432  0F6D  00CF               	movwf	?___fladd
  5433  0F6E  2FFF               	goto	l683
  5434  0F6F                     l2011:
  5435  0F6F  3001               	movlw	1
  5436  0F70                     u1785:
  5437  0F70  35CF               	lslf	___fladd@b,f
  5438  0F71  0DD0               	rlf	___fladd@b+1,f
  5439  0F72  0DD1               	rlf	___fladd@b+2,f
  5440  0F73  0DD2               	rlf	___fladd@b+3,f
  5441  0F74  0B89               	decfsz	9,f
  5442  0F75  2F70               	goto	u1785
  5443  0F76                     l2013:
  5444  0F76  1FE2               	btfss	___fladd@grs,7
  5445  0F77  2F79               	goto	u1791
  5446  0F78  2F7A               	goto	u1790
  5447  0F79                     u1791:
  5448  0F79  2F7B               	goto	l695
  5449  0F7A                     u1790:
  5450  0F7A                     l2015:
  5451  0F7A  144F               	bsf	___fladd@b,0
  5452  0F7B                     l695:
  5453  0F7B  1C62               	btfss	___fladd@grs,0
  5454  0F7C  2F7E               	goto	u1801
  5455  0F7D  2F7F               	goto	u1800
  5456  0F7E                     u1801:
  5457  0F7E  2F82               	goto	l2019
  5458  0F7F                     u1800:
  5459  0F7F                     l2017:
  5460  0F7F  1403               	setc
  5461  0F80  0DE2               	rlf	___fladd@grs,f
  5462  0F81  2F84               	goto	l2021
  5463  0F82                     l2019:
  5464  0F82  1003               	clrc
  5465  0F83  0DE2               	rlf	___fladd@grs,f
  5466  0F84                     l2021:
  5467  0F84  0861               	movf	___fladd@bexp,w
  5468  0F85  1903               	btfsc	3,2
  5469  0F86  2F88               	goto	u1811
  5470  0F87  2F89               	goto	u1810
  5471  0F88                     u1811:
  5472  0F88  2F8B               	goto	l2025
  5473  0F89                     u1810:
  5474  0F89                     l2023:
  5475  0F89  3001               	movlw	1
  5476  0F8A  02E1               	subwf	___fladd@bexp,f
  5477  0F8B                     l2025:
  5478  0F8B  1FD1               	btfss	___fladd@b+2,7
  5479  0F8C  2F8E               	goto	u1821
  5480  0F8D  2F8F               	goto	u1820
  5481  0F8E                     u1821:
  5482  0F8E  2F6F               	goto	l2011
  5483  0F8F                     u1820:
  5484  0F8F                     l2027:
  5485  0F8F  01E0               	clrf	___fladd@aexp
  5486  0F90                     l2029:
  5487  0F90  1FE2               	btfss	___fladd@grs,7
  5488  0F91  2F93               	goto	u1831
  5489  0F92  2F94               	goto	u1830
  5490  0F93                     u1831:
  5491  0F93  2FA2               	goto	l2037
  5492  0F94                     u1830:
  5493  0F94                     l2031:
  5494  0F94  0862               	movf	___fladd@grs,w
  5495  0F95  397F               	andlw	127
  5496  0F96  1903               	btfsc	3,2
  5497  0F97  2F99               	goto	u1841
  5498  0F98  2F9A               	goto	u1840
  5499  0F99                     u1841:
  5500  0F99  2F9D               	goto	l701
  5501  0F9A                     u1840:
  5502  0F9A                     l2033:
  5503  0F9A  01E0               	clrf	___fladd@aexp
  5504  0F9B  0AE0               	incf	___fladd@aexp,f
  5505  0F9C  2FA2               	goto	l2037
  5506  0F9D                     l701:
  5507  0F9D  1C4F               	btfss	___fladd@b,0
  5508  0F9E  2FA0               	goto	u1851
  5509  0F9F  2FA1               	goto	u1850
  5510  0FA0                     u1851:
  5511  0FA0  2FA2               	goto	l2037
  5512  0FA1                     u1850:
  5513  0FA1  2F9A               	goto	l2033
  5514  0FA2                     l2037:
  5515  0FA2  0860               	movf	___fladd@aexp,w
  5516  0FA3  1903               	btfsc	3,2
  5517  0FA4  2FA6               	goto	u1861
  5518  0FA5  2FA7               	goto	u1860
  5519  0FA6                     u1861:
  5520  0FA6  2FD4               	goto	l704
  5521  0FA7                     u1860:
  5522  0FA7                     l2039:
  5523  0FA7  3001               	movlw	1
  5524  0FA8  07CF               	addwf	___fladd@b,f
  5525  0FA9  3000               	movlw	0
  5526  0FAA  3DD0               	addwfc	___fladd@b+1,f
  5527  0FAB  3000               	movlw	0
  5528  0FAC  3DD1               	addwfc	___fladd@b+2,f
  5529  0FAD  3000               	movlw	0
  5530  0FAE  3DD2               	addwfc	___fladd@b+3,f
  5531  0FAF                     l2041:
  5532  0FAF  1C52               	btfss	___fladd@b+3,0
  5533  0FB0  2FB2               	goto	u1871
  5534  0FB1  2FB3               	goto	u1870
  5535  0FB2                     u1871:
  5536  0FB2  2FD4               	goto	l704
  5537  0FB3                     u1870:
  5538  0FB3                     l2043:
  5539  0FB3  084F               	movf	___fladd@b,w
  5540  0FB4  00D7               	movwf	??___fladd
  5541  0FB5  0850               	movf	___fladd@b+1,w
  5542  0FB6  00D8               	movwf	??___fladd+1
  5543  0FB7  0851               	movf	___fladd@b+2,w
  5544  0FB8  00D9               	movwf	??___fladd+2
  5545  0FB9  0852               	movf	___fladd@b+3,w
  5546  0FBA  00DA               	movwf	??___fladd+3
  5547  0FBB  3001               	movlw	1
  5548  0FBC  00DB               	movwf	??___fladd+4
  5549  0FBD                     u1885:
  5550  0FBD  37DA               	asrf	??___fladd+3,f
  5551  0FBE  0CD9               	rrf	??___fladd+2,f
  5552  0FBF  0CD8               	rrf	??___fladd+1,f
  5553  0FC0  0CD7               	rrf	??___fladd,f
  5554  0FC1                     u1880:
  5555  0FC1  0BDB               	decfsz	??___fladd+4,f
  5556  0FC2  2FBD               	goto	u1885
  5557  0FC3  085A               	movf	??___fladd+3,w
  5558  0FC4  00D2               	movwf	___fladd@b+3
  5559  0FC5  0859               	movf	??___fladd+2,w
  5560  0FC6  00D1               	movwf	___fladd@b+2
  5561  0FC7  0858               	movf	??___fladd+1,w
  5562  0FC8  00D0               	movwf	___fladd@b+1
  5563  0FC9  0857               	movf	??___fladd,w
  5564  0FCA  00CF               	movwf	___fladd@b
  5565  0FCB  0A61               	incf	___fladd@bexp,w
  5566  0FCC  1903               	btfsc	3,2
  5567  0FCD  2FCF               	goto	u1891
  5568  0FCE  2FD0               	goto	u1890
  5569  0FCF                     u1891:
  5570  0FCF  2FD4               	goto	l704
  5571  0FD0                     u1890:
  5572  0FD0                     l2045:
  5573  0FD0  3001               	movlw	1
  5574  0FD1  00D7               	movwf	??___fladd
  5575  0FD2  0857               	movf	??___fladd,w
  5576  0FD3  07E1               	addwf	___fladd@bexp,f
  5577  0FD4                     l704:
  5578  0FD4  0A61               	incf	___fladd@bexp,w
  5579  0FD5  1903               	btfsc	3,2
  5580  0FD6  2FD8               	goto	u1901
  5581  0FD7  2FD9               	goto	u1900
  5582  0FD8                     u1901:
  5583  0FD8  2FDE               	goto	l2049
  5584  0FD9                     u1900:
  5585  0FD9                     l2047:
  5586  0FD9  0861               	movf	___fladd@bexp,w
  5587  0FDA  1D03               	btfss	3,2
  5588  0FDB  2FDD               	goto	u1911
  5589  0FDC  2FDE               	goto	u1910
  5590  0FDD                     u1911:
  5591  0FDD  2FEC               	goto	l2055
  5592  0FDE                     u1910:
  5593  0FDE                     l2049:
  5594  0FDE  3000               	movlw	0
  5595  0FDF  00D2               	movwf	___fladd@b+3
  5596  0FE0  3000               	movlw	0
  5597  0FE1  00D1               	movwf	___fladd@b+2
  5598  0FE2  3000               	movlw	0
  5599  0FE3  00D0               	movwf	___fladd@b+1
  5600  0FE4  3000               	movlw	0
  5601  0FE5  00CF               	movwf	___fladd@b
  5602  0FE6                     l2051:
  5603  0FE6  0861               	movf	___fladd@bexp,w
  5604  0FE7  1D03               	btfss	3,2
  5605  0FE8  2FEA               	goto	u1921
  5606  0FE9  2FEB               	goto	u1920
  5607  0FEA                     u1921:
  5608  0FEA  2FEC               	goto	l2055
  5609  0FEB                     u1920:
  5610  0FEB                     l2053:
  5611  0FEB  01DF               	clrf	___fladd@signs
  5612  0FEC                     l2055:
  5613  0FEC  1C61               	btfss	___fladd@bexp,0
  5614  0FED  2FEF               	goto	u1931
  5615  0FEE  2FF0               	goto	u1930
  5616  0FEF                     u1931:
  5617  0FEF  2FF2               	goto	l2059
  5618  0FF0                     u1930:
  5619  0FF0                     l2057:
  5620  0FF0  17D1               	bsf	___fladd@b+2,7
  5621  0FF1  2FF6               	goto	l712
  5622  0FF2                     l2059:
  5623  0FF2  307F               	movlw	127
  5624  0FF3  00D7               	movwf	??___fladd
  5625  0FF4  0857               	movf	??___fladd,w
  5626  0FF5  05D1               	andwf	___fladd@b+2,f
  5627  0FF6                     l712:
  5628  0FF6  3661               	lsrf	___fladd@bexp,w
  5629  0FF7  00D7               	movwf	??___fladd
  5630  0FF8  0857               	movf	??___fladd,w
  5631  0FF9  00D2               	movwf	___fladd@b+3
  5632  0FFA                     l2061:
  5633  0FFA  1FDF               	btfss	___fladd@signs,7
  5634  0FFB  2FFD               	goto	u1941
  5635  0FFC  2FFE               	goto	u1940
  5636  0FFD                     u1941:
  5637  0FFD  2FFF               	goto	l713
  5638  0FFE                     u1940:
  5639  0FFE                     l2063:
  5640  0FFE  17D2               	bsf	___fladd@b+3,7
  5641  0FFF                     l713:
  5642  0FFF                     l683:
  5643  0FFF  0008               	return
  5644  1000                     __end_of___fladd:
  5645                           
  5646                           	psect	text6
  5647  0046                     __ptext6:	
  5648 ;; *************** function ___flmul *****************
  5649 ;; Defined at:
  5650 ;;		line 8 in file "C:\Program Files (x86)\MPLAB X\Compilers\XC8\pic\sources\c99\common\sprcmul.c"
  5651 ;; Parameters:    Size  Location     Type
  5652 ;;  b               4    0[BANK0 ] unsigned char 
  5653 ;;  a               4    4[BANK0 ] unsigned char 
  5654 ;; Auto vars:     Size  Location     Type
  5655 ;;  prod            4   15[BANK0 ] struct .
  5656 ;;  grs             4    9[BANK0 ] unsigned long 
  5657 ;;  temp            2   19[BANK0 ] struct .
  5658 ;;  bexp            1   14[BANK0 ] unsigned char 
  5659 ;;  aexp            1   13[BANK0 ] unsigned char 
  5660 ;;  sign            1    8[BANK0 ] unsigned char 
  5661 ;; Return value:  Size  Location     Type
  5662 ;;                  4    0[BANK0 ] unsigned char 
  5663 ;; Registers used:
  5664 ;;		wreg, status,2, status,0, pclath, cstack
  5665 ;; Tracked objects:
  5666 ;;		On entry : 0/0
  5667 ;;		On exit  : 0/0
  5668 ;;		Unchanged: 0/0
  5669 ;; Data sizes:     COMMON   BANK0   BANK1   BANK2   BANK3   BANK4   BANK5   BANK6   BANK7   BANK8   BANK9  BANK10  BANK1
      +1  BANK12
  5670 ;;      Params:         0       8       0       0       0       0       0       0       0       0       0       0       
      +0       0
  5671 ;;      Locals:         0      13       0       0       0       0       0       0       0       0       0       0       
      +0       0
  5672 ;;      Temps:          5       0       0       0       0       0       0       0       0       0       0       0       
      +0       0
  5673 ;;      Totals:         5      21       0       0       0       0       0       0       0       0       0       0       
      +0       0
  5674 ;;Total ram usage:       26 bytes
  5675 ;; Hardware stack levels used: 1
  5676 ;; Hardware stack levels required when called: 1
  5677 ;; This function calls:
  5678 ;;		__Umul8_16
  5679 ;; This function is called by:
  5680 ;;		_logf
  5681 ;; This function uses a non-reentrant model
  5682 ;;
  5683                           
  5684                           
  5685                           ;psect for function ___flmul
  5686  0046                     ___flmul:
  5687  0046                     l2261:	
  5688                           ;incstack = 0
  5689                           ; Regs used in ___flmul: [wreg+status,2+status,0+pclath+cstack]
  5690                           
  5691  0046  0020               	movlb	0	; select bank0
  5692  0047  0823               	movf	___flmul@b+3,w
  5693  0048  3980               	andlw	128
  5694  0049  00F9               	movwf	??___flmul
  5695  004A  0879               	movf	??___flmul,w
  5696  004B  00A8               	movwf	___flmul@sign
  5697  004C                     l2263:
  5698  004C  3523               	lslf	___flmul@b+3,w
  5699  004D  00F9               	movwf	??___flmul
  5700  004E  0879               	movf	??___flmul,w
  5701  004F  00AE               	movwf	___flmul@bexp
  5702  0050                     l2265:
  5703  0050  1FA2               	btfss	___flmul@b+2,7
  5704  0051  2853               	goto	u2291
  5705  0052  2854               	goto	u2290
  5706  0053                     u2291:
  5707  0053  2855               	goto	l2269
  5708  0054                     u2290:
  5709  0054                     l2267:
  5710  0054  142E               	bsf	___flmul@bexp,0
  5711  0055                     l2269:
  5712  0055  082E               	movf	___flmul@bexp,w
  5713  0056  1903               	btfsc	3,2
  5714  0057  2859               	goto	u2301
  5715  0058  285A               	goto	u2300
  5716  0059                     u2301:
  5717  0059  2869               	goto	l2277
  5718  005A                     u2300:
  5719  005A                     l2271:
  5720  005A  0A2E               	incf	___flmul@bexp,w
  5721  005B  1D03               	btfss	3,2
  5722  005C  285E               	goto	u2311
  5723  005D  285F               	goto	u2310
  5724  005E                     u2311:
  5725  005E  2867               	goto	l2275
  5726  005F                     u2310:
  5727  005F                     l2273:
  5728  005F  3000               	movlw	0
  5729  0060  00A3               	movwf	___flmul@b+3
  5730  0061  3000               	movlw	0
  5731  0062  00A2               	movwf	___flmul@b+2
  5732  0063  3000               	movlw	0
  5733  0064  00A1               	movwf	___flmul@b+1
  5734  0065  3000               	movlw	0
  5735  0066  00A0               	movwf	___flmul@b
  5736  0067                     l2275:
  5737  0067  17A2               	bsf	___flmul@b+2,7
  5738  0068  2871               	goto	l2279
  5739  0069                     l2277:
  5740  0069  3000               	movlw	0
  5741  006A  00A3               	movwf	___flmul@b+3
  5742  006B  3000               	movlw	0
  5743  006C  00A2               	movwf	___flmul@b+2
  5744  006D  3000               	movlw	0
  5745  006E  00A1               	movwf	___flmul@b+1
  5746  006F  3000               	movlw	0
  5747  0070  00A0               	movwf	___flmul@b
  5748  0071                     l2279:
  5749  0071  0827               	movf	___flmul@a+3,w
  5750  0072  3980               	andlw	128
  5751  0073  00F9               	movwf	??___flmul
  5752  0074  0879               	movf	??___flmul,w
  5753  0075  06A8               	xorwf	___flmul@sign,f
  5754  0076                     l2281:
  5755  0076  3527               	lslf	___flmul@a+3,w
  5756  0077  00F9               	movwf	??___flmul
  5757  0078  0879               	movf	??___flmul,w
  5758  0079  00AD               	movwf	___flmul@aexp
  5759  007A                     l2283:
  5760  007A  1FA6               	btfss	___flmul@a+2,7
  5761  007B  287D               	goto	u2321
  5762  007C  287E               	goto	u2320
  5763  007D                     u2321:
  5764  007D  287F               	goto	l2287
  5765  007E                     u2320:
  5766  007E                     l2285:
  5767  007E  142D               	bsf	___flmul@aexp,0
  5768  007F                     l2287:
  5769  007F  082D               	movf	___flmul@aexp,w
  5770  0080  1903               	btfsc	3,2
  5771  0081  2883               	goto	u2331
  5772  0082  2884               	goto	u2330
  5773  0083                     u2331:
  5774  0083  2893               	goto	l2295
  5775  0084                     u2330:
  5776  0084                     l2289:
  5777  0084  0A2D               	incf	___flmul@aexp,w
  5778  0085  1D03               	btfss	3,2
  5779  0086  2888               	goto	u2341
  5780  0087  2889               	goto	u2340
  5781  0088                     u2341:
  5782  0088  2891               	goto	l2293
  5783  0089                     u2340:
  5784  0089                     l2291:
  5785  0089  3000               	movlw	0
  5786  008A  00A7               	movwf	___flmul@a+3
  5787  008B  3000               	movlw	0
  5788  008C  00A6               	movwf	___flmul@a+2
  5789  008D  3000               	movlw	0
  5790  008E  00A5               	movwf	___flmul@a+1
  5791  008F  3000               	movlw	0
  5792  0090  00A4               	movwf	___flmul@a
  5793  0091                     l2293:
  5794  0091  17A6               	bsf	___flmul@a+2,7
  5795  0092  289B               	goto	l2297
  5796  0093                     l2295:
  5797  0093  3000               	movlw	0
  5798  0094  00A7               	movwf	___flmul@a+3
  5799  0095  3000               	movlw	0
  5800  0096  00A6               	movwf	___flmul@a+2
  5801  0097  3000               	movlw	0
  5802  0098  00A5               	movwf	___flmul@a+1
  5803  0099  3000               	movlw	0
  5804  009A  00A4               	movwf	___flmul@a
  5805  009B                     l2297:
  5806  009B  082D               	movf	___flmul@aexp,w
  5807  009C  1903               	btfsc	3,2
  5808  009D  289F               	goto	u2351
  5809  009E  28A0               	goto	u2350
  5810  009F                     u2351:
  5811  009F  28A5               	goto	l2301
  5812  00A0                     u2350:
  5813  00A0                     l2299:
  5814  00A0  082E               	movf	___flmul@bexp,w
  5815  00A1  1D03               	btfss	3,2
  5816  00A2  28A4               	goto	u2361
  5817  00A3  28A5               	goto	u2360
  5818  00A4                     u2361:
  5819  00A4  28AE               	goto	l2305
  5820  00A5                     u2360:
  5821  00A5                     l2301:
  5822  00A5  3000               	movlw	0
  5823  00A6  00A3               	movwf	?___flmul+3
  5824  00A7  3000               	movlw	0
  5825  00A8  00A2               	movwf	?___flmul+2
  5826  00A9  3000               	movlw	0
  5827  00AA  00A1               	movwf	?___flmul+1
  5828  00AB  3000               	movlw	0
  5829  00AC  00A0               	movwf	?___flmul
  5830  00AD  2A9C               	goto	l766
  5831  00AE                     l2305:
  5832  00AE  0820               	movf	___flmul@b,w
  5833  00AF  00F9               	movwf	??___flmul
  5834  00B0  0879               	movf	??___flmul,w
  5835  00B1  00F0               	movwf	__Umul8_16@multiplicand
  5836  00B2  0826               	movf	___flmul@a+2,w
  5837  00B3  3196  26F8  3180   	fcall	__Umul8_16
  5838  00B6  0871               	movf	?__Umul8_16+1,w
  5839  00B7  0020               	movlb	0	; select bank0
  5840  00B8  00B4               	movwf	___flmul@temp+1
  5841  00B9  0870               	movf	?__Umul8_16,w
  5842  00BA  00B3               	movwf	___flmul@temp
  5843  00BB                     l2307:
  5844  00BB  0833               	movf	___flmul@temp,w
  5845  00BC  00F9               	movwf	??___flmul
  5846  00BD  01FA               	clrf	??___flmul+1
  5847  00BE  01FB               	clrf	??___flmul+2
  5848  00BF  01FC               	clrf	??___flmul+3
  5849  00C0  087C               	movf	??___flmul+3,w
  5850  00C1  00AC               	movwf	___flmul@grs+3
  5851  00C2  087B               	movf	??___flmul+2,w
  5852  00C3  00AB               	movwf	___flmul@grs+2
  5853  00C4  087A               	movf	??___flmul+1,w
  5854  00C5  00AA               	movwf	___flmul@grs+1
  5855  00C6  0879               	movf	??___flmul,w
  5856  00C7  00A9               	movwf	___flmul@grs
  5857  00C8                     l2309:
  5858  00C8  0834               	movf	___flmul@temp+1,w
  5859  00C9  00F9               	movwf	??___flmul
  5860  00CA  01FA               	clrf	??___flmul+1
  5861  00CB  01FB               	clrf	??___flmul+2
  5862  00CC  01FC               	clrf	??___flmul+3
  5863  00CD  087C               	movf	??___flmul+3,w
  5864  00CE  00B2               	movwf	___flmul@prod+3
  5865  00CF  087B               	movf	??___flmul+2,w
  5866  00D0  00B1               	movwf	___flmul@prod+2
  5867  00D1  087A               	movf	??___flmul+1,w
  5868  00D2  00B0               	movwf	___flmul@prod+1
  5869  00D3  0879               	movf	??___flmul,w
  5870  00D4  00AF               	movwf	___flmul@prod
  5871  00D5  0821               	movf	___flmul@b+1,w
  5872  00D6  00F9               	movwf	??___flmul
  5873  00D7  0879               	movf	??___flmul,w
  5874  00D8  00F0               	movwf	__Umul8_16@multiplicand
  5875  00D9  0825               	movf	___flmul@a+1,w
  5876  00DA  3196  26F8  3180   	fcall	__Umul8_16
  5877  00DD  0871               	movf	?__Umul8_16+1,w
  5878  00DE  0020               	movlb	0	; select bank0
  5879  00DF  00B4               	movwf	___flmul@temp+1
  5880  00E0  0870               	movf	?__Umul8_16,w
  5881  00E1  00B3               	movwf	___flmul@temp
  5882  00E2                     l2311:
  5883  00E2  0833               	movf	___flmul@temp,w
  5884  00E3  00F9               	movwf	??___flmul
  5885  00E4  01FA               	clrf	??___flmul+1
  5886  00E5  01FB               	clrf	??___flmul+2
  5887  00E6  01FC               	clrf	??___flmul+3
  5888  00E7  0879               	movf	??___flmul,w
  5889  00E8  07A9               	addwf	___flmul@grs,f
  5890  00E9  087A               	movf	??___flmul+1,w
  5891  00EA  3DAA               	addwfc	___flmul@grs+1,f
  5892  00EB  087B               	movf	??___flmul+2,w
  5893  00EC  3DAB               	addwfc	___flmul@grs+2,f
  5894  00ED  087C               	movf	??___flmul+3,w
  5895  00EE  3DAC               	addwfc	___flmul@grs+3,f
  5896  00EF                     l2313:
  5897  00EF  0834               	movf	___flmul@temp+1,w
  5898  00F0  00F9               	movwf	??___flmul
  5899  00F1  01FA               	clrf	??___flmul+1
  5900  00F2  01FB               	clrf	??___flmul+2
  5901  00F3  01FC               	clrf	??___flmul+3
  5902  00F4  0879               	movf	??___flmul,w
  5903  00F5  07AF               	addwf	___flmul@prod,f
  5904  00F6  087A               	movf	??___flmul+1,w
  5905  00F7  3DB0               	addwfc	___flmul@prod+1,f
  5906  00F8  087B               	movf	??___flmul+2,w
  5907  00F9  3DB1               	addwfc	___flmul@prod+2,f
  5908  00FA  087C               	movf	??___flmul+3,w
  5909  00FB  3DB2               	addwfc	___flmul@prod+3,f
  5910  00FC  0822               	movf	___flmul@b+2,w
  5911  00FD  00F9               	movwf	??___flmul
  5912  00FE  0879               	movf	??___flmul,w
  5913  00FF  00F0               	movwf	__Umul8_16@multiplicand
  5914  0100  0824               	movf	___flmul@a,w
  5915  0101  3196  26F8  3180   	fcall	__Umul8_16
  5916  0104  0871               	movf	?__Umul8_16+1,w
  5917  0105  0020               	movlb	0	; select bank0
  5918  0106  00B4               	movwf	___flmul@temp+1
  5919  0107  0870               	movf	?__Umul8_16,w
  5920  0108  00B3               	movwf	___flmul@temp
  5921  0109                     l2315:
  5922  0109  0833               	movf	___flmul@temp,w
  5923  010A  00F9               	movwf	??___flmul
  5924  010B  01FA               	clrf	??___flmul+1
  5925  010C  01FB               	clrf	??___flmul+2
  5926  010D  01FC               	clrf	??___flmul+3
  5927  010E  0879               	movf	??___flmul,w
  5928  010F  07A9               	addwf	___flmul@grs,f
  5929  0110  087A               	movf	??___flmul+1,w
  5930  0111  3DAA               	addwfc	___flmul@grs+1,f
  5931  0112  087B               	movf	??___flmul+2,w
  5932  0113  3DAB               	addwfc	___flmul@grs+2,f
  5933  0114  087C               	movf	??___flmul+3,w
  5934  0115  3DAC               	addwfc	___flmul@grs+3,f
  5935  0116                     l2317:
  5936  0116  0834               	movf	___flmul@temp+1,w
  5937  0117  00F9               	movwf	??___flmul
  5938  0118  01FA               	clrf	??___flmul+1
  5939  0119  01FB               	clrf	??___flmul+2
  5940  011A  01FC               	clrf	??___flmul+3
  5941  011B  0879               	movf	??___flmul,w
  5942  011C  07AF               	addwf	___flmul@prod,f
  5943  011D  087A               	movf	??___flmul+1,w
  5944  011E  3DB0               	addwfc	___flmul@prod+1,f
  5945  011F  087B               	movf	??___flmul+2,w
  5946  0120  3DB1               	addwfc	___flmul@prod+2,f
  5947  0121  087C               	movf	??___flmul+3,w
  5948  0122  3DB2               	addwfc	___flmul@prod+3,f
  5949  0123                     l2319:
  5950  0123  3008               	movlw	8
  5951  0124                     u2375:
  5952  0124  35A9               	lslf	___flmul@grs,f
  5953  0125  0DAA               	rlf	___flmul@grs+1,f
  5954  0126  0DAB               	rlf	___flmul@grs+2,f
  5955  0127  0DAC               	rlf	___flmul@grs+3,f
  5956  0128  0B89               	decfsz	9,f
  5957  0129  2924               	goto	u2375
  5958  012A                     l2321:
  5959  012A  0821               	movf	___flmul@b+1,w
  5960  012B  00F9               	movwf	??___flmul
  5961  012C  0879               	movf	??___flmul,w
  5962  012D  00F0               	movwf	__Umul8_16@multiplicand
  5963  012E  0824               	movf	___flmul@a,w
  5964  012F  3196  26F8  3180   	fcall	__Umul8_16
  5965  0132  0871               	movf	?__Umul8_16+1,w
  5966  0133  0020               	movlb	0	; select bank0
  5967  0134  00B4               	movwf	___flmul@temp+1
  5968  0135  0870               	movf	?__Umul8_16,w
  5969  0136  00B3               	movwf	___flmul@temp
  5970  0137                     l2323:
  5971  0137  0833               	movf	___flmul@temp,w
  5972  0138  07A9               	addwf	___flmul@grs,f
  5973  0139  0834               	movf	___flmul@temp+1,w
  5974  013A  3DAA               	addwfc	___flmul@grs+1,f
  5975  013B  3000               	movlw	0
  5976  013C  3DAB               	addwfc	___flmul@grs+2,f
  5977  013D  3DAC               	addwfc	___flmul@grs+3,f
  5978  013E                     l2325:
  5979  013E  0820               	movf	___flmul@b,w
  5980  013F  00F9               	movwf	??___flmul
  5981  0140  0879               	movf	??___flmul,w
  5982  0141  00F0               	movwf	__Umul8_16@multiplicand
  5983  0142  0825               	movf	___flmul@a+1,w
  5984  0143  3196  26F8  3180   	fcall	__Umul8_16
  5985  0146  0871               	movf	?__Umul8_16+1,w
  5986  0147  0020               	movlb	0	; select bank0
  5987  0148  00B4               	movwf	___flmul@temp+1
  5988  0149  0870               	movf	?__Umul8_16,w
  5989  014A  00B3               	movwf	___flmul@temp
  5990  014B                     l2327:
  5991  014B  0833               	movf	___flmul@temp,w
  5992  014C  07A9               	addwf	___flmul@grs,f
  5993  014D  0834               	movf	___flmul@temp+1,w
  5994  014E  3DAA               	addwfc	___flmul@grs+1,f
  5995  014F  3000               	movlw	0
  5996  0150  3DAB               	addwfc	___flmul@grs+2,f
  5997  0151  3DAC               	addwfc	___flmul@grs+3,f
  5998  0152                     l2329:
  5999  0152  3008               	movlw	8
  6000  0153                     u2385:
  6001  0153  35A9               	lslf	___flmul@grs,f
  6002  0154  0DAA               	rlf	___flmul@grs+1,f
  6003  0155  0DAB               	rlf	___flmul@grs+2,f
  6004  0156  0DAC               	rlf	___flmul@grs+3,f
  6005  0157  0B89               	decfsz	9,f
  6006  0158  2953               	goto	u2385
  6007  0159  0820               	movf	___flmul@b,w
  6008  015A  00F9               	movwf	??___flmul
  6009  015B  0879               	movf	??___flmul,w
  6010  015C  00F0               	movwf	__Umul8_16@multiplicand
  6011  015D  0824               	movf	___flmul@a,w
  6012  015E  3196  26F8  3180   	fcall	__Umul8_16
  6013  0161  0871               	movf	?__Umul8_16+1,w
  6014  0162  0020               	movlb	0	; select bank0
  6015  0163  00B4               	movwf	___flmul@temp+1
  6016  0164  0870               	movf	?__Umul8_16,w
  6017  0165  00B3               	movwf	___flmul@temp
  6018  0166                     l2331:
  6019  0166  0833               	movf	___flmul@temp,w
  6020  0167  07A9               	addwf	___flmul@grs,f
  6021  0168  0834               	movf	___flmul@temp+1,w
  6022  0169  3DAA               	addwfc	___flmul@grs+1,f
  6023  016A  3000               	movlw	0
  6024  016B  3DAB               	addwfc	___flmul@grs+2,f
  6025  016C  3DAC               	addwfc	___flmul@grs+3,f
  6026  016D                     l2333:
  6027  016D  0821               	movf	___flmul@b+1,w
  6028  016E  00F9               	movwf	??___flmul
  6029  016F  0879               	movf	??___flmul,w
  6030  0170  00F0               	movwf	__Umul8_16@multiplicand
  6031  0171  0826               	movf	___flmul@a+2,w
  6032  0172  3196  26F8  3180   	fcall	__Umul8_16
  6033  0175  0871               	movf	?__Umul8_16+1,w
  6034  0176  0020               	movlb	0	; select bank0
  6035  0177  00B4               	movwf	___flmul@temp+1
  6036  0178  0870               	movf	?__Umul8_16,w
  6037  0179  00B3               	movwf	___flmul@temp
  6038  017A  0833               	movf	___flmul@temp,w
  6039  017B  07AF               	addwf	___flmul@prod,f
  6040  017C  0834               	movf	___flmul@temp+1,w
  6041  017D  3DB0               	addwfc	___flmul@prod+1,f
  6042  017E  3000               	movlw	0
  6043  017F  3DB1               	addwfc	___flmul@prod+2,f
  6044  0180  3DB2               	addwfc	___flmul@prod+3,f
  6045  0181                     l2335:
  6046  0181  0822               	movf	___flmul@b+2,w
  6047  0182  00F9               	movwf	??___flmul
  6048  0183  0879               	movf	??___flmul,w
  6049  0184  00F0               	movwf	__Umul8_16@multiplicand
  6050  0185  0825               	movf	___flmul@a+1,w
  6051  0186  3196  26F8  3180   	fcall	__Umul8_16
  6052  0189  0871               	movf	?__Umul8_16+1,w
  6053  018A  0020               	movlb	0	; select bank0
  6054  018B  00B4               	movwf	___flmul@temp+1
  6055  018C  0870               	movf	?__Umul8_16,w
  6056  018D  00B3               	movwf	___flmul@temp
  6057  018E                     l2337:
  6058  018E  0833               	movf	___flmul@temp,w
  6059  018F  07AF               	addwf	___flmul@prod,f
  6060  0190  0834               	movf	___flmul@temp+1,w
  6061  0191  3DB0               	addwfc	___flmul@prod+1,f
  6062  0192  3000               	movlw	0
  6063  0193  3DB1               	addwfc	___flmul@prod+2,f
  6064  0194  3DB2               	addwfc	___flmul@prod+3,f
  6065  0195  0822               	movf	___flmul@b+2,w
  6066  0196  00F9               	movwf	??___flmul
  6067  0197  0879               	movf	??___flmul,w
  6068  0198  00F0               	movwf	__Umul8_16@multiplicand
  6069  0199  0826               	movf	___flmul@a+2,w
  6070  019A  3196  26F8  3180   	fcall	__Umul8_16
  6071  019D  0871               	movf	?__Umul8_16+1,w
  6072  019E  0020               	movlb	0	; select bank0
  6073  019F  00B4               	movwf	___flmul@temp+1
  6074  01A0  0870               	movf	?__Umul8_16,w
  6075  01A1  00B3               	movwf	___flmul@temp
  6076  01A2                     l2339:
  6077  01A2  0833               	movf	___flmul@temp,w
  6078  01A3  00F9               	movwf	??___flmul
  6079  01A4  0834               	movf	___flmul@temp+1,w
  6080  01A5  00FA               	movwf	??___flmul+1
  6081  01A6  01FB               	clrf	??___flmul+2
  6082  01A7  01FC               	clrf	??___flmul+3
  6083  01A8  3008               	movlw	8
  6084  01A9                     u2395:
  6085  01A9  35F9               	lslf	??___flmul,f
  6086  01AA  0DFA               	rlf	??___flmul+1,f
  6087  01AB  0DFB               	rlf	??___flmul+2,f
  6088  01AC  0DFC               	rlf	??___flmul+3,f
  6089  01AD                     u2390:
  6090  01AD  0B89               	decfsz	9,f
  6091  01AE  29A9               	goto	u2395
  6092  01AF  0879               	movf	??___flmul,w
  6093  01B0  07AF               	addwf	___flmul@prod,f
  6094  01B1  087A               	movf	??___flmul+1,w
  6095  01B2  3DB0               	addwfc	___flmul@prod+1,f
  6096  01B3  087B               	movf	??___flmul+2,w
  6097  01B4  3DB1               	addwfc	___flmul@prod+2,f
  6098  01B5  087C               	movf	??___flmul+3,w
  6099  01B6  3DB2               	addwfc	___flmul@prod+3,f
  6100  01B7                     l2341:
  6101  01B7  0829               	movf	___flmul@grs,w
  6102  01B8  00F9               	movwf	??___flmul
  6103  01B9  082A               	movf	___flmul@grs+1,w
  6104  01BA  00FA               	movwf	??___flmul+1
  6105  01BB  082B               	movf	___flmul@grs+2,w
  6106  01BC  00FB               	movwf	??___flmul+2
  6107  01BD  082C               	movf	___flmul@grs+3,w
  6108  01BE  00FC               	movwf	??___flmul+3
  6109  01BF  3018               	movlw	24
  6110  01C0                     u2405:
  6111  01C0  36FC               	lsrf	??___flmul+3,f
  6112  01C1  0CFB               	rrf	??___flmul+2,f
  6113  01C2  0CFA               	rrf	??___flmul+1,f
  6114  01C3  0CF9               	rrf	??___flmul,f
  6115  01C4                     u2400:
  6116  01C4  0B89               	decfsz	9,f
  6117  01C5  29C0               	goto	u2405
  6118  01C6  0879               	movf	??___flmul,w
  6119  01C7  07AF               	addwf	___flmul@prod,f
  6120  01C8  087A               	movf	??___flmul+1,w
  6121  01C9  3DB0               	addwfc	___flmul@prod+1,f
  6122  01CA  087B               	movf	??___flmul+2,w
  6123  01CB  3DB1               	addwfc	___flmul@prod+2,f
  6124  01CC  087C               	movf	??___flmul+3,w
  6125  01CD  3DB2               	addwfc	___flmul@prod+3,f
  6126  01CE                     l2343:
  6127  01CE  3008               	movlw	8
  6128  01CF                     u2415:
  6129  01CF  35A9               	lslf	___flmul@grs,f
  6130  01D0  0DAA               	rlf	___flmul@grs+1,f
  6131  01D1  0DAB               	rlf	___flmul@grs+2,f
  6132  01D2  0DAC               	rlf	___flmul@grs+3,f
  6133  01D3  0B89               	decfsz	9,f
  6134  01D4  29CF               	goto	u2415
  6135  01D5                     l2345:
  6136  01D5  082E               	movf	___flmul@bexp,w
  6137  01D6  072D               	addwf	___flmul@aexp,w
  6138  01D7  00F9               	movwf	??___flmul
  6139  01D8  01FA               	clrf	??___flmul+1
  6140  01D9  0DFA               	rlf	??___flmul+1,f
  6141  01DA  0879               	movf	??___flmul,w
  6142  01DB  3E82               	addlw	130
  6143  01DC  00B3               	movwf	___flmul@temp
  6144  01DD  30FF               	movlw	255
  6145  01DE  3D7A               	addwfc	??___flmul+1,w
  6146  01DF  00B4               	movwf	___flmul@temp+1
  6147  01E0  29F8               	goto	l2357
  6148  01E1                     l2347:
  6149  01E1  3001               	movlw	1
  6150  01E2                     u2425:
  6151  01E2  35AF               	lslf	___flmul@prod,f
  6152  01E3  0DB0               	rlf	___flmul@prod+1,f
  6153  01E4  0DB1               	rlf	___flmul@prod+2,f
  6154  01E5  0DB2               	rlf	___flmul@prod+3,f
  6155  01E6  0B89               	decfsz	9,f
  6156  01E7  29E2               	goto	u2425
  6157  01E8                     l2349:
  6158  01E8  1FAC               	btfss	___flmul@grs+3,7
  6159  01E9  29EB               	goto	u2431
  6160  01EA  29EC               	goto	u2430
  6161  01EB                     u2431:
  6162  01EB  29ED               	goto	l2353
  6163  01EC                     u2430:
  6164  01EC                     l2351:
  6165  01EC  142F               	bsf	___flmul@prod,0
  6166  01ED                     l2353:
  6167  01ED  3001               	movlw	1
  6168  01EE                     u2445:
  6169  01EE  35A9               	lslf	___flmul@grs,f
  6170  01EF  0DAA               	rlf	___flmul@grs+1,f
  6171  01F0  0DAB               	rlf	___flmul@grs+2,f
  6172  01F1  0DAC               	rlf	___flmul@grs+3,f
  6173  01F2  0B89               	decfsz	9,f
  6174  01F3  29EE               	goto	u2445
  6175  01F4                     l2355:
  6176  01F4  30FF               	movlw	255
  6177  01F5  07B3               	addwf	___flmul@temp,f
  6178  01F6  30FF               	movlw	255
  6179  01F7  3DB4               	addwfc	___flmul@temp+1,f
  6180  01F8                     l2357:
  6181  01F8  1FB1               	btfss	___flmul@prod+2,7
  6182  01F9  29FB               	goto	u2451
  6183  01FA  29FC               	goto	u2450
  6184  01FB                     u2451:
  6185  01FB  29E1               	goto	l2347
  6186  01FC                     u2450:
  6187  01FC                     l2359:
  6188  01FC  01AD               	clrf	___flmul@aexp
  6189  01FD                     l2361:
  6190  01FD  1FAC               	btfss	___flmul@grs+3,7
  6191  01FE  2A00               	goto	u2461
  6192  01FF  2A01               	goto	u2460
  6193  0200                     u2461:
  6194  0200  2A1D               	goto	l2369
  6195  0201                     u2460:
  6196  0201                     l2363:
  6197  0201  30FF               	movlw	255
  6198  0202  0529               	andwf	___flmul@grs,w
  6199  0203  00F9               	movwf	??___flmul
  6200  0204  30FF               	movlw	255
  6201  0205  052A               	andwf	___flmul@grs+1,w
  6202  0206  00FA               	movwf	??___flmul+1
  6203  0207  30FF               	movlw	255
  6204  0208  052B               	andwf	___flmul@grs+2,w
  6205  0209  00FB               	movwf	??___flmul+2
  6206  020A  307F               	movlw	127
  6207  020B  052C               	andwf	___flmul@grs+3,w
  6208  020C  00FC               	movwf	??___flmul+3
  6209  020D  087C               	movf	??___flmul+3,w
  6210  020E  047B               	iorwf	??___flmul+2,w
  6211  020F  047A               	iorwf	??___flmul+1,w
  6212  0210  0479               	iorwf	??___flmul,w
  6213  0211  1903               	skipnz
  6214  0212  2A14               	goto	u2471
  6215  0213  2A15               	goto	u2470
  6216  0214                     u2471:
  6217  0214  2A18               	goto	l772
  6218  0215                     u2470:
  6219  0215                     l2365:
  6220  0215  01AD               	clrf	___flmul@aexp
  6221  0216  0AAD               	incf	___flmul@aexp,f
  6222  0217  2A1D               	goto	l2369
  6223  0218                     l772:
  6224  0218  1C2F               	btfss	___flmul@prod,0
  6225  0219  2A1B               	goto	u2481
  6226  021A  2A1C               	goto	u2480
  6227  021B                     u2481:
  6228  021B  2A1D               	goto	l2369
  6229  021C                     u2480:
  6230  021C  2A15               	goto	l2365
  6231  021D                     l2369:
  6232  021D  082D               	movf	___flmul@aexp,w
  6233  021E  1903               	btfsc	3,2
  6234  021F  2A21               	goto	u2491
  6235  0220  2A22               	goto	u2490
  6236  0221                     u2491:
  6237  0221  2A4A               	goto	l2379
  6238  0222                     u2490:
  6239  0222                     l2371:
  6240  0222  3001               	movlw	1
  6241  0223  07AF               	addwf	___flmul@prod,f
  6242  0224  3000               	movlw	0
  6243  0225  3DB0               	addwfc	___flmul@prod+1,f
  6244  0226  3000               	movlw	0
  6245  0227  3DB1               	addwfc	___flmul@prod+2,f
  6246  0228  3000               	movlw	0
  6247  0229  3DB2               	addwfc	___flmul@prod+3,f
  6248  022A                     l2373:
  6249  022A  1C32               	btfss	___flmul@prod+3,0
  6250  022B  2A2D               	goto	u2501
  6251  022C  2A2E               	goto	u2500
  6252  022D                     u2501:
  6253  022D  2A4A               	goto	l2379
  6254  022E                     u2500:
  6255  022E                     l2375:
  6256  022E  082F               	movf	___flmul@prod,w
  6257  022F  00F9               	movwf	??___flmul
  6258  0230  0830               	movf	___flmul@prod+1,w
  6259  0231  00FA               	movwf	??___flmul+1
  6260  0232  0831               	movf	___flmul@prod+2,w
  6261  0233  00FB               	movwf	??___flmul+2
  6262  0234  0832               	movf	___flmul@prod+3,w
  6263  0235  00FC               	movwf	??___flmul+3
  6264  0236  3001               	movlw	1
  6265  0237  00FD               	movwf	??___flmul+4
  6266  0238                     u2515:
  6267  0238  37FC               	asrf	??___flmul+3,f
  6268  0239  0CFB               	rrf	??___flmul+2,f
  6269  023A  0CFA               	rrf	??___flmul+1,f
  6270  023B  0CF9               	rrf	??___flmul,f
  6271  023C                     u2510:
  6272  023C  0BFD               	decfsz	??___flmul+4,f
  6273  023D  2A38               	goto	u2515
  6274  023E  087C               	movf	??___flmul+3,w
  6275  023F  00B2               	movwf	___flmul@prod+3
  6276  0240  087B               	movf	??___flmul+2,w
  6277  0241  00B1               	movwf	___flmul@prod+2
  6278  0242  087A               	movf	??___flmul+1,w
  6279  0243  00B0               	movwf	___flmul@prod+1
  6280  0244  0879               	movf	??___flmul,w
  6281  0245  00AF               	movwf	___flmul@prod
  6282  0246                     l2377:
  6283  0246  3001               	movlw	1
  6284  0247  07B3               	addwf	___flmul@temp,f
  6285  0248  3000               	movlw	0
  6286  0249  3DB4               	addwfc	___flmul@temp+1,f
  6287  024A                     l2379:
  6288  024A  0834               	movf	___flmul@temp+1,w
  6289  024B  3A80               	xorlw	128
  6290  024C  00F9               	movwf	??___flmul
  6291  024D  3080               	movlw	128
  6292  024E  0279               	subwf	??___flmul,w
  6293  024F  1D03               	skipz
  6294  0250  2A53               	goto	u2525
  6295  0251  30FF               	movlw	255
  6296  0252  0233               	subwf	___flmul@temp,w
  6297  0253                     u2525:
  6298  0253  1C03               	skipc
  6299  0254  2A56               	goto	u2521
  6300  0255  2A57               	goto	u2520
  6301  0256                     u2521:
  6302  0256  2A61               	goto	l2383
  6303  0257                     u2520:
  6304  0257                     l2381:
  6305  0257  307F               	movlw	127
  6306  0258  0020               	movlb	0	; select bank0
  6307  0259  00B2               	movwf	___flmul@prod+3
  6308  025A  3080               	movlw	128
  6309  025B  00B1               	movwf	___flmul@prod+2
  6310  025C  3000               	movlw	0
  6311  025D  00B0               	movwf	___flmul@prod+1
  6312  025E  3000               	movlw	0
  6313  025F  00AF               	movwf	___flmul@prod
  6314  0260  2A90               	goto	l778
  6315  0261                     l2383:
  6316  0261  0020               	movlb	0	; select bank0
  6317  0262  0834               	movf	___flmul@temp+1,w
  6318  0263  3A80               	xorlw	128
  6319  0264  00F9               	movwf	??___flmul
  6320  0265  3080               	movlw	128
  6321  0266  0279               	subwf	??___flmul,w
  6322  0267  1D03               	skipz
  6323  0268  2A6B               	goto	u2535
  6324  0269  3001               	movlw	1
  6325  026A  0233               	subwf	___flmul@temp,w
  6326  026B                     u2535:
  6327  026B  1803               	skipnc
  6328  026C  2A6E               	goto	u2531
  6329  026D  2A6F               	goto	u2530
  6330  026E                     u2531:
  6331  026E  2A7A               	goto	l2389
  6332  026F                     u2530:
  6333  026F                     l2385:
  6334  026F  3000               	movlw	0
  6335  0270  0020               	movlb	0	; select bank0
  6336  0271  00B2               	movwf	___flmul@prod+3
  6337  0272  3000               	movlw	0
  6338  0273  00B1               	movwf	___flmul@prod+2
  6339  0274  3000               	movlw	0
  6340  0275  00B0               	movwf	___flmul@prod+1
  6341  0276  3000               	movlw	0
  6342  0277  00AF               	movwf	___flmul@prod
  6343  0278                     l2387:
  6344  0278  01A8               	clrf	___flmul@sign
  6345  0279  2A90               	goto	l778
  6346  027A                     l2389:
  6347  027A  0020               	movlb	0	; select bank0
  6348  027B  0833               	movf	___flmul@temp,w
  6349  027C  00F9               	movwf	??___flmul
  6350  027D  0879               	movf	??___flmul,w
  6351  027E  00AE               	movwf	___flmul@bexp
  6352  027F  30FF               	movlw	255
  6353  0280  05AF               	andwf	___flmul@prod,f
  6354  0281  30FF               	movlw	255
  6355  0282  05B0               	andwf	___flmul@prod+1,f
  6356  0283  307F               	movlw	127
  6357  0284  05B1               	andwf	___flmul@prod+2,f
  6358  0285  3000               	movlw	0
  6359  0286  05B2               	andwf	___flmul@prod+3,f
  6360  0287                     l2391:
  6361  0287  1C2E               	btfss	___flmul@bexp,0
  6362  0288  2A8A               	goto	u2541
  6363  0289  2A8B               	goto	u2540
  6364  028A                     u2541:
  6365  028A  2A8C               	goto	l2395
  6366  028B                     u2540:
  6367  028B                     l2393:
  6368  028B  17B1               	bsf	___flmul@prod+2,7
  6369  028C                     l2395:
  6370  028C  362E               	lsrf	___flmul@bexp,w
  6371  028D  00F9               	movwf	??___flmul
  6372  028E  0879               	movf	??___flmul,w
  6373  028F  00B2               	movwf	___flmul@prod+3
  6374  0290                     l778:
  6375  0290  0828               	movf	___flmul@sign,w
  6376  0291  00F9               	movwf	??___flmul
  6377  0292  0879               	movf	??___flmul,w
  6378  0293  04B2               	iorwf	___flmul@prod+3,f
  6379  0294                     l2397:
  6380  0294  0832               	movf	___flmul@prod+3,w
  6381  0295  00A3               	movwf	?___flmul+3
  6382  0296  0831               	movf	___flmul@prod+2,w
  6383  0297  00A2               	movwf	?___flmul+2
  6384  0298  0830               	movf	___flmul@prod+1,w
  6385  0299  00A1               	movwf	?___flmul+1
  6386  029A  082F               	movf	___flmul@prod,w
  6387  029B  00A0               	movwf	?___flmul
  6388  029C                     l766:
  6389  029C  0008               	return
  6390  029D                     __end_of___flmul:
  6391                           
  6392                           	psect	text7
  6393  16F8                     __ptext7:	
  6394 ;; *************** function __Umul8_16 *****************
  6395 ;; Defined at:
  6396 ;;		line 4 in file "C:\Program Files (x86)\MPLAB X\Compilers\XC8\pic\sources\c99\common\Umul8_16.c"
  6397 ;; Parameters:    Size  Location     Type
  6398 ;;  multiplier      1    wreg     unsigned char 
  6399 ;;  multiplicand    1    0[COMMON] unsigned char 
  6400 ;; Auto vars:     Size  Location     Type
  6401 ;;  multiplier      1    8[COMMON] unsigned char 
  6402 ;;  word_mpld       2    6[COMMON] unsigned int 
  6403 ;;  product         2    4[COMMON] unsigned int 
  6404 ;; Return value:  Size  Location     Type
  6405 ;;                  2    0[COMMON] unsigned int 
  6406 ;; Registers used:
  6407 ;;		wreg, status,2, status,0
  6408 ;; Tracked objects:
  6409 ;;		On entry : 0/0
  6410 ;;		On exit  : 0/0
  6411 ;;		Unchanged: 0/0
  6412 ;; Data sizes:     COMMON   BANK0   BANK1   BANK2   BANK3   BANK4   BANK5   BANK6   BANK7   BANK8   BANK9  BANK10  BANK1
      +1  BANK12
  6413 ;;      Params:         2       0       0       0       0       0       0       0       0       0       0       0       
      +0       0
  6414 ;;      Locals:         5       0       0       0       0       0       0       0       0       0       0       0       
      +0       0
  6415 ;;      Temps:          2       0       0       0       0       0       0       0       0       0       0       0       
      +0       0
  6416 ;;      Totals:         9       0       0       0       0       0       0       0       0       0       0       0       
      +0       0
  6417 ;;Total ram usage:        9 bytes
  6418 ;; Hardware stack levels used: 1
  6419 ;; This function calls:
  6420 ;;		Nothing
  6421 ;; This function is called by:
  6422 ;;		___flmul
  6423 ;; This function uses a non-reentrant model
  6424 ;;
  6425                           
  6426                           
  6427                           ;psect for function __Umul8_16
  6428  16F8                     __Umul8_16:
  6429                           
  6430                           ;incstack = 0
  6431                           ; Regs used in __Umul8_16: [wreg+status,2+status,0]
  6432                           ;__Umul8_16@multiplier stored from wreg
  6433  16F8  00F8               	movwf	__Umul8_16@multiplier
  6434  16F9                     l2065:
  6435  16F9  01F4               	clrf	__Umul8_16@product
  6436  16FA  01F5               	clrf	__Umul8_16@product+1
  6437  16FB                     l2067:
  6438  16FB  0870               	movf	__Umul8_16@multiplicand,w
  6439  16FC  00F2               	movwf	??__Umul8_16
  6440  16FD  01F3               	clrf	??__Umul8_16+1
  6441  16FE  0872               	movf	??__Umul8_16,w
  6442  16FF  00F6               	movwf	__Umul8_16@word_mpld
  6443  1700  0873               	movf	??__Umul8_16+1,w
  6444  1701  00F7               	movwf	__Umul8_16@word_mpld+1
  6445  1702                     l2069:
  6446  1702  1C78               	btfss	__Umul8_16@multiplier,0
  6447  1703  2F05               	goto	u1951
  6448  1704  2F06               	goto	u1950
  6449  1705                     u1951:
  6450  1705  2F0A               	goto	l785
  6451  1706                     u1950:
  6452  1706                     l2071:
  6453  1706  0876               	movf	__Umul8_16@word_mpld,w
  6454  1707  07F4               	addwf	__Umul8_16@product,f
  6455  1708  0877               	movf	__Umul8_16@word_mpld+1,w
  6456  1709  3DF5               	addwfc	__Umul8_16@product+1,f
  6457  170A                     l785:
  6458  170A  3001               	movlw	1
  6459  170B                     u1965:
  6460  170B  35F6               	lslf	__Umul8_16@word_mpld,f
  6461  170C  0DF7               	rlf	__Umul8_16@word_mpld+1,f
  6462  170D  0B89               	decfsz	9,f
  6463  170E  2F0B               	goto	u1965
  6464  170F  1003               	clrc
  6465  1710  0CF8               	rrf	__Umul8_16@multiplier,f
  6466  1711                     l2073:
  6467  1711  0878               	movf	__Umul8_16@multiplier,w
  6468  1712  1D03               	btfss	3,2
  6469  1713  2F15               	goto	u1971
  6470  1714  2F16               	goto	u1970
  6471  1715                     u1971:
  6472  1715  2F02               	goto	l2069
  6473  1716                     u1970:
  6474  1716                     l2075:
  6475  1716  0875               	movf	__Umul8_16@product+1,w
  6476  1717  00F1               	movwf	?__Umul8_16+1
  6477  1718  0874               	movf	__Umul8_16@product,w
  6478  1719  00F0               	movwf	?__Umul8_16
  6479  171A                     l787:
  6480  171A  0008               	return
  6481  171B                     __end_of__Umul8_16:
  6482                           
  6483                           	psect	text8
  6484  0C14                     __ptext8:	
  6485 ;; *************** function ___fldiv *****************
  6486 ;; Defined at:
  6487 ;;		line 8 in file "C:\Program Files (x86)\MPLAB X\Compilers\XC8\pic\sources\c99\common\sprcdiv.c"
  6488 ;; Parameters:    Size  Location     Type
  6489 ;;  a               4   21[BANK0 ] unsigned int 
  6490 ;;  b               4   25[BANK0 ] unsigned int 
  6491 ;; Auto vars:     Size  Location     Type
  6492 ;;  grs             4   41[BANK0 ] unsigned long 
  6493 ;;  rem             4   34[BANK0 ] unsigned long 
  6494 ;;  new_exp         2   39[BANK0 ] int 
  6495 ;;  aexp            1   46[BANK0 ] unsigned char 
  6496 ;;  bexp            1   45[BANK0 ] unsigned char 
  6497 ;;  sign            1   38[BANK0 ] unsigned char 
  6498 ;; Return value:  Size  Location     Type
  6499 ;;                  4   21[BANK0 ] unsigned char 
  6500 ;; Registers used:
  6501 ;;		wreg, status,2, status,0
  6502 ;; Tracked objects:
  6503 ;;		On entry : 0/0
  6504 ;;		On exit  : 0/0
  6505 ;;		Unchanged: 0/0
  6506 ;; Data sizes:     COMMON   BANK0   BANK1   BANK2   BANK3   BANK4   BANK5   BANK6   BANK7   BANK8   BANK9  BANK10  BANK1
      +1  BANK12
  6507 ;;      Params:         0       8       0       0       0       0       0       0       0       0       0       0       
      +0       0
  6508 ;;      Locals:         0      13       0       0       0       0       0       0       0       0       0       0       
      +0       0
  6509 ;;      Temps:          0       5       0       0       0       0       0       0       0       0       0       0       
      +0       0
  6510 ;;      Totals:         0      26       0       0       0       0       0       0       0       0       0       0       
      +0       0
  6511 ;;Total ram usage:       26 bytes
  6512 ;; Hardware stack levels used: 1
  6513 ;; This function calls:
  6514 ;;		Nothing
  6515 ;; This function is called by:
  6516 ;;		_thermistor_temp
  6517 ;;		_logf
  6518 ;; This function uses a non-reentrant model
  6519 ;;
  6520                           
  6521                           
  6522                           ;psect for function ___fldiv
  6523  0C14                     ___fldiv:
  6524  0C14                     l2121:	
  6525                           ;incstack = 0
  6526                           ; Regs used in ___fldiv: [wreg+status,2+status,0]
  6527                           
  6528  0C14  0020               	movlb	0	; select bank0
  6529  0C15  083C               	movf	___fldiv@b+3,w
  6530  0C16  3980               	andlw	128
  6531  0C17  00BD               	movwf	??___fldiv
  6532  0C18  083D               	movf	??___fldiv,w
  6533  0C19  00C6               	movwf	___fldiv@sign
  6534  0C1A                     l2123:
  6535  0C1A  353C               	lslf	___fldiv@b+3,w
  6536  0C1B  00BD               	movwf	??___fldiv
  6537  0C1C  083D               	movf	??___fldiv,w
  6538  0C1D  00CD               	movwf	___fldiv@bexp
  6539  0C1E                     l2125:
  6540  0C1E  1FBB               	btfss	___fldiv@b+2,7
  6541  0C1F  2C21               	goto	u2001
  6542  0C20  2C22               	goto	u2000
  6543  0C21                     u2001:
  6544  0C21  2C23               	goto	l2129
  6545  0C22                     u2000:
  6546  0C22                     l2127:
  6547  0C22  144D               	bsf	___fldiv@bexp,0
  6548  0C23                     l2129:
  6549  0C23  084D               	movf	___fldiv@bexp,w
  6550  0C24  1903               	btfsc	3,2
  6551  0C25  2C27               	goto	u2011
  6552  0C26  2C28               	goto	u2010
  6553  0C27                     u2011:
  6554  0C27  2C38               	goto	l2139
  6555  0C28                     u2010:
  6556  0C28                     l2131:
  6557  0C28  0A4D               	incf	___fldiv@bexp,w
  6558  0C29  1D03               	btfss	3,2
  6559  0C2A  2C2C               	goto	u2021
  6560  0C2B  2C2D               	goto	u2020
  6561  0C2C                     u2021:
  6562  0C2C  2C35               	goto	l2135
  6563  0C2D                     u2020:
  6564  0C2D                     l2133:
  6565  0C2D  3000               	movlw	0
  6566  0C2E  00BC               	movwf	___fldiv@b+3
  6567  0C2F  3000               	movlw	0
  6568  0C30  00BB               	movwf	___fldiv@b+2
  6569  0C31  3000               	movlw	0
  6570  0C32  00BA               	movwf	___fldiv@b+1
  6571  0C33  3000               	movlw	0
  6572  0C34  00B9               	movwf	___fldiv@b
  6573  0C35                     l2135:
  6574  0C35  17BB               	bsf	___fldiv@b+2,7
  6575  0C36                     l2137:
  6576  0C36  01BC               	clrf	___fldiv@b+3
  6577  0C37  2C40               	goto	l2141
  6578  0C38                     l2139:
  6579  0C38  3000               	movlw	0
  6580  0C39  00BC               	movwf	___fldiv@b+3
  6581  0C3A  3000               	movlw	0
  6582  0C3B  00BB               	movwf	___fldiv@b+2
  6583  0C3C  3000               	movlw	0
  6584  0C3D  00BA               	movwf	___fldiv@b+1
  6585  0C3E  3000               	movlw	0
  6586  0C3F  00B9               	movwf	___fldiv@b
  6587  0C40                     l2141:
  6588  0C40  0838               	movf	___fldiv@a+3,w
  6589  0C41  3980               	andlw	128
  6590  0C42  00BD               	movwf	??___fldiv
  6591  0C43  083D               	movf	??___fldiv,w
  6592  0C44  06C6               	xorwf	___fldiv@sign,f
  6593  0C45                     l2143:
  6594  0C45  3538               	lslf	___fldiv@a+3,w
  6595  0C46  00BD               	movwf	??___fldiv
  6596  0C47  083D               	movf	??___fldiv,w
  6597  0C48  00CE               	movwf	___fldiv@aexp
  6598  0C49                     l2145:
  6599  0C49  1FB7               	btfss	___fldiv@a+2,7
  6600  0C4A  2C4C               	goto	u2031
  6601  0C4B  2C4D               	goto	u2030
  6602  0C4C                     u2031:
  6603  0C4C  2C4E               	goto	l2149
  6604  0C4D                     u2030:
  6605  0C4D                     l2147:
  6606  0C4D  144E               	bsf	___fldiv@aexp,0
  6607  0C4E                     l2149:
  6608  0C4E  084E               	movf	___fldiv@aexp,w
  6609  0C4F  1903               	btfsc	3,2
  6610  0C50  2C52               	goto	u2041
  6611  0C51  2C53               	goto	u2040
  6612  0C52                     u2041:
  6613  0C52  2C63               	goto	l2159
  6614  0C53                     u2040:
  6615  0C53                     l2151:
  6616  0C53  0A4E               	incf	___fldiv@aexp,w
  6617  0C54  1D03               	btfss	3,2
  6618  0C55  2C57               	goto	u2051
  6619  0C56  2C58               	goto	u2050
  6620  0C57                     u2051:
  6621  0C57  2C60               	goto	l2155
  6622  0C58                     u2050:
  6623  0C58                     l2153:
  6624  0C58  3000               	movlw	0
  6625  0C59  00B8               	movwf	___fldiv@a+3
  6626  0C5A  3000               	movlw	0
  6627  0C5B  00B7               	movwf	___fldiv@a+2
  6628  0C5C  3000               	movlw	0
  6629  0C5D  00B6               	movwf	___fldiv@a+1
  6630  0C5E  3000               	movlw	0
  6631  0C5F  00B5               	movwf	___fldiv@a
  6632  0C60                     l2155:
  6633  0C60  17B7               	bsf	___fldiv@a+2,7
  6634  0C61                     l2157:
  6635  0C61  01B8               	clrf	___fldiv@a+3
  6636  0C62  2C6B               	goto	l726
  6637  0C63                     l2159:
  6638  0C63  3000               	movlw	0
  6639  0C64  00B8               	movwf	___fldiv@a+3
  6640  0C65  3000               	movlw	0
  6641  0C66  00B7               	movwf	___fldiv@a+2
  6642  0C67  3000               	movlw	0
  6643  0C68  00B6               	movwf	___fldiv@a+1
  6644  0C69  3000               	movlw	0
  6645  0C6A  00B5               	movwf	___fldiv@a
  6646  0C6B                     l726:
  6647  0C6B  0838               	movf	___fldiv@a+3,w
  6648  0C6C  0437               	iorwf	___fldiv@a+2,w
  6649  0C6D  0436               	iorwf	___fldiv@a+1,w
  6650  0C6E  0435               	iorwf	___fldiv@a,w
  6651  0C6F  1D03               	skipz
  6652  0C70  2C72               	goto	u2061
  6653  0C71  2C73               	goto	u2060
  6654  0C72                     u2061:
  6655  0C72  2C8C               	goto	l2169
  6656  0C73                     u2060:
  6657  0C73                     l2161:
  6658  0C73  3000               	movlw	0
  6659  0C74  00BC               	movwf	___fldiv@b+3
  6660  0C75  3000               	movlw	0
  6661  0C76  00BB               	movwf	___fldiv@b+2
  6662  0C77  3000               	movlw	0
  6663  0C78  00BA               	movwf	___fldiv@b+1
  6664  0C79  3000               	movlw	0
  6665  0C7A  00B9               	movwf	___fldiv@b
  6666  0C7B  3080               	movlw	128
  6667  0C7C  04BB               	iorwf	___fldiv@b+2,f
  6668  0C7D  307F               	movlw	127
  6669  0C7E  04BC               	iorwf	___fldiv@b+3,f
  6670  0C7F                     l2163:
  6671  0C7F  0846               	movf	___fldiv@sign,w
  6672  0C80  00BD               	movwf	??___fldiv
  6673  0C81  083D               	movf	??___fldiv,w
  6674  0C82  04BC               	iorwf	___fldiv@b+3,f
  6675  0C83                     l2165:
  6676  0C83  083C               	movf	___fldiv@b+3,w
  6677  0C84  00B8               	movwf	?___fldiv+3
  6678  0C85  083B               	movf	___fldiv@b+2,w
  6679  0C86  00B7               	movwf	?___fldiv+2
  6680  0C87  083A               	movf	___fldiv@b+1,w
  6681  0C88  00B6               	movwf	?___fldiv+1
  6682  0C89  0839               	movf	___fldiv@b,w
  6683  0C8A  00B5               	movwf	?___fldiv
  6684  0C8B  2DC7               	goto	l728
  6685  0C8C                     l2169:
  6686  0C8C  084D               	movf	___fldiv@bexp,w
  6687  0C8D  1D03               	btfss	3,2
  6688  0C8E  2C90               	goto	u2071
  6689  0C8F  2C91               	goto	u2070
  6690  0C90                     u2071:
  6691  0C90  2C9A               	goto	l2175
  6692  0C91                     u2070:
  6693  0C91                     l2171:
  6694  0C91  3000               	movlw	0
  6695  0C92  00B8               	movwf	?___fldiv+3
  6696  0C93  3000               	movlw	0
  6697  0C94  00B7               	movwf	?___fldiv+2
  6698  0C95  3000               	movlw	0
  6699  0C96  00B6               	movwf	?___fldiv+1
  6700  0C97  3000               	movlw	0
  6701  0C98  00B5               	movwf	?___fldiv
  6702  0C99  2DC7               	goto	l728
  6703  0C9A                     l2175:
  6704  0C9A  084D               	movf	___fldiv@bexp,w
  6705  0C9B  00BD               	movwf	??___fldiv
  6706  0C9C  01BE               	clrf	??___fldiv+1
  6707  0C9D  083E               	movf	??___fldiv+1,w
  6708  0C9E  00C0               	movwf	??___fldiv+3
  6709  0C9F  084E               	movf	___fldiv@aexp,w
  6710  0CA0  023D               	subwf	??___fldiv,w
  6711  0CA1  00BF               	movwf	??___fldiv+2
  6712  0CA2  1C03               	skipc
  6713  0CA3  03C0               	decf	??___fldiv+3,f
  6714  0CA4  083F               	movf	??___fldiv+2,w
  6715  0CA5  3E7F               	addlw	127
  6716  0CA6  00C7               	movwf	___fldiv@new_exp
  6717  0CA7  3000               	movlw	0
  6718  0CA8  3D40               	addwfc	??___fldiv+3,w
  6719  0CA9  00C8               	movwf	___fldiv@new_exp+1
  6720  0CAA                     l2177:
  6721  0CAA  083C               	movf	___fldiv@b+3,w
  6722  0CAB  00C5               	movwf	___fldiv@rem+3
  6723  0CAC  083B               	movf	___fldiv@b+2,w
  6724  0CAD  00C4               	movwf	___fldiv@rem+2
  6725  0CAE  083A               	movf	___fldiv@b+1,w
  6726  0CAF  00C3               	movwf	___fldiv@rem+1
  6727  0CB0  0839               	movf	___fldiv@b,w
  6728  0CB1  00C2               	movwf	___fldiv@rem
  6729  0CB2                     l2179:
  6730  0CB2  3000               	movlw	0
  6731  0CB3  00BC               	movwf	___fldiv@b+3
  6732  0CB4  3000               	movlw	0
  6733  0CB5  00BB               	movwf	___fldiv@b+2
  6734  0CB6  3000               	movlw	0
  6735  0CB7  00BA               	movwf	___fldiv@b+1
  6736  0CB8  3000               	movlw	0
  6737  0CB9  00B9               	movwf	___fldiv@b
  6738  0CBA                     l2181:
  6739  0CBA  3000               	movlw	0
  6740  0CBB  00CC               	movwf	___fldiv@grs+3
  6741  0CBC  3000               	movlw	0
  6742  0CBD  00CB               	movwf	___fldiv@grs+2
  6743  0CBE  3000               	movlw	0
  6744  0CBF  00CA               	movwf	___fldiv@grs+1
  6745  0CC0  3000               	movlw	0
  6746  0CC1  00C9               	movwf	___fldiv@grs
  6747  0CC2                     l2183:
  6748  0CC2  01CE               	clrf	___fldiv@aexp
  6749  0CC3  2D02               	goto	l2203
  6750  0CC4                     l2185:
  6751  0CC4  084E               	movf	___fldiv@aexp,w
  6752  0CC5  1903               	btfsc	3,2
  6753  0CC6  2CC8               	goto	u2081
  6754  0CC7  2CC9               	goto	u2080
  6755  0CC8                     u2081:
  6756  0CC8  2CE3               	goto	l2195
  6757  0CC9                     u2080:
  6758  0CC9                     l2187:
  6759  0CC9  3001               	movlw	1
  6760  0CCA                     u2095:
  6761  0CCA  35C2               	lslf	___fldiv@rem,f
  6762  0CCB  0DC3               	rlf	___fldiv@rem+1,f
  6763  0CCC  0DC4               	rlf	___fldiv@rem+2,f
  6764  0CCD  0DC5               	rlf	___fldiv@rem+3,f
  6765  0CCE  0B89               	decfsz	9,f
  6766  0CCF  2CCA               	goto	u2095
  6767  0CD0  3001               	movlw	1
  6768  0CD1                     u2105:
  6769  0CD1  35B9               	lslf	___fldiv@b,f
  6770  0CD2  0DBA               	rlf	___fldiv@b+1,f
  6771  0CD3  0DBB               	rlf	___fldiv@b+2,f
  6772  0CD4  0DBC               	rlf	___fldiv@b+3,f
  6773  0CD5  0B89               	decfsz	9,f
  6774  0CD6  2CD1               	goto	u2105
  6775  0CD7                     l2189:
  6776  0CD7  1FCC               	btfss	___fldiv@grs+3,7
  6777  0CD8  2CDA               	goto	u2111
  6778  0CD9  2CDB               	goto	u2110
  6779  0CDA                     u2111:
  6780  0CDA  2CDC               	goto	l2193
  6781  0CDB                     u2110:
  6782  0CDB                     l2191:
  6783  0CDB  1439               	bsf	___fldiv@b,0
  6784  0CDC                     l2193:
  6785  0CDC  3001               	movlw	1
  6786  0CDD                     u2125:
  6787  0CDD  35C9               	lslf	___fldiv@grs,f
  6788  0CDE  0DCA               	rlf	___fldiv@grs+1,f
  6789  0CDF  0DCB               	rlf	___fldiv@grs+2,f
  6790  0CE0  0DCC               	rlf	___fldiv@grs+3,f
  6791  0CE1  0B89               	decfsz	9,f
  6792  0CE2  2CDD               	goto	u2125
  6793  0CE3                     l2195:
  6794  0CE3  0838               	movf	___fldiv@a+3,w
  6795  0CE4  0245               	subwf	___fldiv@rem+3,w
  6796  0CE5  1D03               	skipz
  6797  0CE6  2CF1               	goto	u2135
  6798  0CE7  0837               	movf	___fldiv@a+2,w
  6799  0CE8  0244               	subwf	___fldiv@rem+2,w
  6800  0CE9  1D03               	skipz
  6801  0CEA  2CF1               	goto	u2135
  6802  0CEB  0836               	movf	___fldiv@a+1,w
  6803  0CEC  0243               	subwf	___fldiv@rem+1,w
  6804  0CED  1D03               	skipz
  6805  0CEE  2CF1               	goto	u2135
  6806  0CEF  0835               	movf	___fldiv@a,w
  6807  0CF0  0242               	subwf	___fldiv@rem,w
  6808  0CF1                     u2135:
  6809  0CF1  1C03               	skipc
  6810  0CF2  2CF4               	goto	u2131
  6811  0CF3  2CF5               	goto	u2130
  6812  0CF4                     u2131:
  6813  0CF4  2CFE               	goto	l2201
  6814  0CF5                     u2130:
  6815  0CF5                     l2197:
  6816  0CF5  174C               	bsf	___fldiv@grs+3,6
  6817  0CF6                     l2199:
  6818  0CF6  0835               	movf	___fldiv@a,w
  6819  0CF7  02C2               	subwf	___fldiv@rem,f
  6820  0CF8  0836               	movf	___fldiv@a+1,w
  6821  0CF9  3BC3               	subwfb	___fldiv@rem+1,f
  6822  0CFA  0837               	movf	___fldiv@a+2,w
  6823  0CFB  3BC4               	subwfb	___fldiv@rem+2,f
  6824  0CFC  0838               	movf	___fldiv@a+3,w
  6825  0CFD  3BC5               	subwfb	___fldiv@rem+3,f
  6826  0CFE                     l2201:
  6827  0CFE  3001               	movlw	1
  6828  0CFF  00BD               	movwf	??___fldiv
  6829  0D00  083D               	movf	??___fldiv,w
  6830  0D01  07CE               	addwf	___fldiv@aexp,f
  6831  0D02                     l2203:
  6832  0D02  301A               	movlw	26
  6833  0D03  024E               	subwf	___fldiv@aexp,w
  6834  0D04  1C03               	skipc
  6835  0D05  2D07               	goto	u2141
  6836  0D06  2D08               	goto	u2140
  6837  0D07                     u2141:
  6838  0D07  2CC4               	goto	l2185
  6839  0D08                     u2140:
  6840  0D08                     l2205:
  6841  0D08  0845               	movf	___fldiv@rem+3,w
  6842  0D09  0444               	iorwf	___fldiv@rem+2,w
  6843  0D0A  0443               	iorwf	___fldiv@rem+1,w
  6844  0D0B  0442               	iorwf	___fldiv@rem,w
  6845  0D0C  1903               	skipnz
  6846  0D0D  2D0F               	goto	u2151
  6847  0D0E  2D10               	goto	u2150
  6848  0D0F                     u2151:
  6849  0D0F  2D29               	goto	l2219
  6850  0D10                     u2150:
  6851  0D10                     l2207:
  6852  0D10  1449               	bsf	___fldiv@grs,0
  6853  0D11  2D29               	goto	l2219
  6854  0D12                     l2209:
  6855  0D12  3001               	movlw	1
  6856  0D13                     u2165:
  6857  0D13  35B9               	lslf	___fldiv@b,f
  6858  0D14  0DBA               	rlf	___fldiv@b+1,f
  6859  0D15  0DBB               	rlf	___fldiv@b+2,f
  6860  0D16  0DBC               	rlf	___fldiv@b+3,f
  6861  0D17  0B89               	decfsz	9,f
  6862  0D18  2D13               	goto	u2165
  6863  0D19                     l2211:
  6864  0D19  1FCC               	btfss	___fldiv@grs+3,7
  6865  0D1A  2D1C               	goto	u2171
  6866  0D1B  2D1D               	goto	u2170
  6867  0D1C                     u2171:
  6868  0D1C  2D1E               	goto	l2215
  6869  0D1D                     u2170:
  6870  0D1D                     l2213:
  6871  0D1D  1439               	bsf	___fldiv@b,0
  6872  0D1E                     l2215:
  6873  0D1E  3001               	movlw	1
  6874  0D1F                     u2185:
  6875  0D1F  35C9               	lslf	___fldiv@grs,f
  6876  0D20  0DCA               	rlf	___fldiv@grs+1,f
  6877  0D21  0DCB               	rlf	___fldiv@grs+2,f
  6878  0D22  0DCC               	rlf	___fldiv@grs+3,f
  6879  0D23  0B89               	decfsz	9,f
  6880  0D24  2D1F               	goto	u2185
  6881  0D25                     l2217:
  6882  0D25  30FF               	movlw	255
  6883  0D26  07C7               	addwf	___fldiv@new_exp,f
  6884  0D27  30FF               	movlw	255
  6885  0D28  3DC8               	addwfc	___fldiv@new_exp+1,f
  6886  0D29                     l2219:
  6887  0D29  1FBB               	btfss	___fldiv@b+2,7
  6888  0D2A  2D2C               	goto	u2191
  6889  0D2B  2D2D               	goto	u2190
  6890  0D2C                     u2191:
  6891  0D2C  2D12               	goto	l2209
  6892  0D2D                     u2190:
  6893  0D2D                     l2221:
  6894  0D2D  01CE               	clrf	___fldiv@aexp
  6895  0D2E                     l2223:
  6896  0D2E  1FCC               	btfss	___fldiv@grs+3,7
  6897  0D2F  2D31               	goto	u2201
  6898  0D30  2D32               	goto	u2200
  6899  0D31                     u2201:
  6900  0D31  2D4E               	goto	l2231
  6901  0D32                     u2200:
  6902  0D32                     l2225:
  6903  0D32  30FF               	movlw	255
  6904  0D33  0549               	andwf	___fldiv@grs,w
  6905  0D34  00BD               	movwf	??___fldiv
  6906  0D35  30FF               	movlw	255
  6907  0D36  054A               	andwf	___fldiv@grs+1,w
  6908  0D37  00BE               	movwf	??___fldiv+1
  6909  0D38  30FF               	movlw	255
  6910  0D39  054B               	andwf	___fldiv@grs+2,w
  6911  0D3A  00BF               	movwf	??___fldiv+2
  6912  0D3B  307F               	movlw	127
  6913  0D3C  054C               	andwf	___fldiv@grs+3,w
  6914  0D3D  00C0               	movwf	??___fldiv+3
  6915  0D3E  0840               	movf	??___fldiv+3,w
  6916  0D3F  043F               	iorwf	??___fldiv+2,w
  6917  0D40  043E               	iorwf	??___fldiv+1,w
  6918  0D41  043D               	iorwf	??___fldiv,w
  6919  0D42  1903               	skipnz
  6920  0D43  2D45               	goto	u2211
  6921  0D44  2D46               	goto	u2210
  6922  0D45                     u2211:
  6923  0D45  2D49               	goto	l742
  6924  0D46                     u2210:
  6925  0D46                     l2227:
  6926  0D46  01CE               	clrf	___fldiv@aexp
  6927  0D47  0ACE               	incf	___fldiv@aexp,f
  6928  0D48  2D4E               	goto	l2231
  6929  0D49                     l742:
  6930  0D49  1C39               	btfss	___fldiv@b,0
  6931  0D4A  2D4C               	goto	u2221
  6932  0D4B  2D4D               	goto	u2220
  6933  0D4C                     u2221:
  6934  0D4C  2D4E               	goto	l2231
  6935  0D4D                     u2220:
  6936  0D4D  2D46               	goto	l2227
  6937  0D4E                     l2231:
  6938  0D4E  084E               	movf	___fldiv@aexp,w
  6939  0D4F  1903               	btfsc	3,2
  6940  0D50  2D52               	goto	u2231
  6941  0D51  2D53               	goto	u2230
  6942  0D52                     u2231:
  6943  0D52  2D7B               	goto	l2241
  6944  0D53                     u2230:
  6945  0D53                     l2233:
  6946  0D53  3001               	movlw	1
  6947  0D54  07B9               	addwf	___fldiv@b,f
  6948  0D55  3000               	movlw	0
  6949  0D56  3DBA               	addwfc	___fldiv@b+1,f
  6950  0D57  3000               	movlw	0
  6951  0D58  3DBB               	addwfc	___fldiv@b+2,f
  6952  0D59  3000               	movlw	0
  6953  0D5A  3DBC               	addwfc	___fldiv@b+3,f
  6954  0D5B                     l2235:
  6955  0D5B  1C3C               	btfss	___fldiv@b+3,0
  6956  0D5C  2D5E               	goto	u2241
  6957  0D5D  2D5F               	goto	u2240
  6958  0D5E                     u2241:
  6959  0D5E  2D7B               	goto	l2241
  6960  0D5F                     u2240:
  6961  0D5F                     l2237:
  6962  0D5F  0839               	movf	___fldiv@b,w
  6963  0D60  00BD               	movwf	??___fldiv
  6964  0D61  083A               	movf	___fldiv@b+1,w
  6965  0D62  00BE               	movwf	??___fldiv+1
  6966  0D63  083B               	movf	___fldiv@b+2,w
  6967  0D64  00BF               	movwf	??___fldiv+2
  6968  0D65  083C               	movf	___fldiv@b+3,w
  6969  0D66  00C0               	movwf	??___fldiv+3
  6970  0D67  3001               	movlw	1
  6971  0D68  00C1               	movwf	??___fldiv+4
  6972  0D69                     u2255:
  6973  0D69  37C0               	asrf	??___fldiv+3,f
  6974  0D6A  0CBF               	rrf	??___fldiv+2,f
  6975  0D6B  0CBE               	rrf	??___fldiv+1,f
  6976  0D6C  0CBD               	rrf	??___fldiv,f
  6977  0D6D                     u2250:
  6978  0D6D  0BC1               	decfsz	??___fldiv+4,f
  6979  0D6E  2D69               	goto	u2255
  6980  0D6F  0840               	movf	??___fldiv+3,w
  6981  0D70  00BC               	movwf	___fldiv@b+3
  6982  0D71  083F               	movf	??___fldiv+2,w
  6983  0D72  00BB               	movwf	___fldiv@b+2
  6984  0D73  083E               	movf	??___fldiv+1,w
  6985  0D74  00BA               	movwf	___fldiv@b+1
  6986  0D75  083D               	movf	??___fldiv,w
  6987  0D76  00B9               	movwf	___fldiv@b
  6988  0D77                     l2239:
  6989  0D77  3001               	movlw	1
  6990  0D78  07C7               	addwf	___fldiv@new_exp,f
  6991  0D79  3000               	movlw	0
  6992  0D7A  3DC8               	addwfc	___fldiv@new_exp+1,f
  6993  0D7B                     l2241:
  6994  0D7B  0848               	movf	___fldiv@new_exp+1,w
  6995  0D7C  3A80               	xorlw	128
  6996  0D7D  00BD               	movwf	??___fldiv
  6997  0D7E  3080               	movlw	128
  6998  0D7F  023D               	subwf	??___fldiv,w
  6999  0D80  1D03               	skipz
  7000  0D81  2D84               	goto	u2265
  7001  0D82  30FF               	movlw	255
  7002  0D83  0247               	subwf	___fldiv@new_exp,w
  7003  0D84                     u2265:
  7004  0D84  1C03               	skipc
  7005  0D85  2D87               	goto	u2261
  7006  0D86  2D88               	goto	u2260
  7007  0D87                     u2261:
  7008  0D87  2D95               	goto	l747
  7009  0D88                     u2260:
  7010  0D88                     l2243:
  7011  0D88  30FF               	movlw	255
  7012  0D89  0020               	movlb	0	; select bank0
  7013  0D8A  00C7               	movwf	___fldiv@new_exp
  7014  0D8B  3000               	movlw	0
  7015  0D8C  00C8               	movwf	___fldiv@new_exp+1
  7016  0D8D  3000               	movlw	0
  7017  0D8E  00BC               	movwf	___fldiv@b+3
  7018  0D8F  3000               	movlw	0
  7019  0D90  00BB               	movwf	___fldiv@b+2
  7020  0D91  3000               	movlw	0
  7021  0D92  00BA               	movwf	___fldiv@b+1
  7022  0D93  3000               	movlw	0
  7023  0D94  00B9               	movwf	___fldiv@b
  7024  0D95                     l747:
  7025  0D95  0020               	movlb	0	; select bank0
  7026  0D96  0848               	movf	___fldiv@new_exp+1,w
  7027  0D97  3A80               	xorlw	128
  7028  0D98  00BD               	movwf	??___fldiv
  7029  0D99  3080               	movlw	128
  7030  0D9A  023D               	subwf	??___fldiv,w
  7031  0D9B  1D03               	skipz
  7032  0D9C  2D9F               	goto	u2275
  7033  0D9D  3001               	movlw	1
  7034  0D9E  0247               	subwf	___fldiv@new_exp,w
  7035  0D9F                     u2275:
  7036  0D9F  1803               	skipnc
  7037  0DA0  2DA2               	goto	u2271
  7038  0DA1  2DA3               	goto	u2270
  7039  0DA2                     u2271:
  7040  0DA2  2DAF               	goto	l748
  7041  0DA3                     u2270:
  7042  0DA3                     l2245:
  7043  0DA3  0020               	movlb	0	; select bank0
  7044  0DA4  01C7               	clrf	___fldiv@new_exp
  7045  0DA5  01C8               	clrf	___fldiv@new_exp+1
  7046  0DA6                     l2247:
  7047  0DA6  3000               	movlw	0
  7048  0DA7  00BC               	movwf	___fldiv@b+3
  7049  0DA8  3000               	movlw	0
  7050  0DA9  00BB               	movwf	___fldiv@b+2
  7051  0DAA  3000               	movlw	0
  7052  0DAB  00BA               	movwf	___fldiv@b+1
  7053  0DAC  3000               	movlw	0
  7054  0DAD  00B9               	movwf	___fldiv@b
  7055  0DAE                     l2249:
  7056  0DAE  01C6               	clrf	___fldiv@sign
  7057  0DAF                     l748:
  7058  0DAF  0020               	movlb	0	; select bank0
  7059  0DB0  0847               	movf	___fldiv@new_exp,w
  7060  0DB1  00BD               	movwf	??___fldiv
  7061  0DB2  083D               	movf	??___fldiv,w
  7062  0DB3  00CD               	movwf	___fldiv@bexp
  7063  0DB4                     l2251:
  7064  0DB4  1C4D               	btfss	___fldiv@bexp,0
  7065  0DB5  2DB7               	goto	u2281
  7066  0DB6  2DB8               	goto	u2280
  7067  0DB7                     u2281:
  7068  0DB7  2DBA               	goto	l2255
  7069  0DB8                     u2280:
  7070  0DB8                     l2253:
  7071  0DB8  17BB               	bsf	___fldiv@b+2,7
  7072  0DB9  2DBE               	goto	l750
  7073  0DBA                     l2255:
  7074  0DBA  307F               	movlw	127
  7075  0DBB  00BD               	movwf	??___fldiv
  7076  0DBC  083D               	movf	??___fldiv,w
  7077  0DBD  05BB               	andwf	___fldiv@b+2,f
  7078  0DBE                     l750:
  7079  0DBE  364D               	lsrf	___fldiv@bexp,w
  7080  0DBF  00BD               	movwf	??___fldiv
  7081  0DC0  083D               	movf	??___fldiv,w
  7082  0DC1  00BC               	movwf	___fldiv@b+3
  7083  0DC2  0846               	movf	___fldiv@sign,w
  7084  0DC3  00BD               	movwf	??___fldiv
  7085  0DC4  083D               	movf	??___fldiv,w
  7086  0DC5  04BC               	iorwf	___fldiv@b+3,f
  7087  0DC6  2C83               	goto	l2165
  7088  0DC7                     l728:
  7089  0DC7  0008               	return
  7090  0DC8                     __end_of___fldiv:
  7091                           
  7092                           	psect	text9
  7093  1626                     __ptext9:	
  7094 ;; *************** function _setPowerOutput *****************
  7095 ;; Defined at:
  7096 ;;		line 126 in file "RFM69HCW.c"
  7097 ;; Parameters:    Size  Location     Type
  7098 ;;  radio           1    wreg     PTR struct RFM69HCW
  7099 ;;		 -> main@radio(75), 
  7100 ;;  powerSetting    1   12[COMMON] unsigned char 
  7101 ;; Auto vars:     Size  Location     Type
  7102 ;;  radio           1    5[BANK0 ] PTR struct RFM69HCW
  7103 ;;		 -> main@radio(75), 
  7104 ;;  msg             2    6[BANK0 ] unsigned char [2]
  7105 ;; Return value:  Size  Location     Type
  7106 ;;                  1    wreg      void 
  7107 ;; Registers used:
  7108 ;;		wreg, fsr1l, fsr1h, status,2, status,0, pclath, cstack
  7109 ;; Tracked objects:
  7110 ;;		On entry : 0/0
  7111 ;;		On exit  : 0/0
  7112 ;;		Unchanged: 0/0
  7113 ;; Data sizes:     COMMON   BANK0   BANK1   BANK2   BANK3   BANK4   BANK5   BANK6   BANK7   BANK8   BANK9  BANK10  BANK1
      +1  BANK12
  7114 ;;      Params:         1       0       0       0       0       0       0       0       0       0       0       0       
      +0       0
  7115 ;;      Locals:         0       3       0       0       0       0       0       0       0       0       0       0       
      +0       0
  7116 ;;      Temps:          0       2       0       0       0       0       0       0       0       0       0       0       
      +0       0
  7117 ;;      Totals:         1       5       0       0       0       0       0       0       0       0       0       0       
      +0       0
  7118 ;;Total ram usage:        6 bytes
  7119 ;; Hardware stack levels used: 1
  7120 ;; Hardware stack levels required when called: 2
  7121 ;; This function calls:
  7122 ;;		_sendBulk
  7123 ;; This function is called by:
  7124 ;;		_main
  7125 ;; This function uses a non-reentrant model
  7126 ;;
  7127                           
  7128                           
  7129                           ;psect for function _setPowerOutput
  7130  1626                     _setPowerOutput:
  7131                           
  7132                           ;incstack = 0
  7133                           ; Regs used in _setPowerOutput: [wreg+fsr1l+fsr1h+status,2+status,0+pclath+cstack]
  7134                           ;setPowerOutput@radio stored from wreg
  7135  1626  0020               	movlb	0	; select bank0
  7136  1627  00A5               	movwf	setPowerOutput@radio
  7137  1628                     l2639:
  7138                           
  7139                           ;RFM69HCW.c: 127:     byte msg[] = {0x11 | 0x80, powerSettings};
  7140  1628  01A6               	clrf	setPowerOutput@msg
  7141  1629  01A7               	clrf	setPowerOutput@msg+1
  7142  162A                     l2641:
  7143  162A  3091               	movlw	145
  7144  162B  00A3               	movwf	??_setPowerOutput
  7145  162C  0823               	movf	??_setPowerOutput,w
  7146  162D  00A6               	movwf	setPowerOutput@msg
  7147  162E                     l2643:
  7148  162E  087C               	movf	setPowerOutput@powerSettings,w
  7149  162F  00A3               	movwf	??_setPowerOutput
  7150  1630  0823               	movf	??_setPowerOutput,w
  7151  1631  00A7               	movwf	setPowerOutput@msg+1
  7152  1632                     l2645:
  7153                           
  7154                           ;RFM69HCW.c: 128:     sendBulk(radio, msg, 2);
  7155  1632  3026               	movlw	(low (setPowerOutput@msg| 0))& (0+255)
  7156  1633  00A3               	movwf	??_setPowerOutput
  7157  1634  0823               	movf	??_setPowerOutput,w
  7158  1635  00F6               	movwf	sendBulk@msgs
  7159  1636  3002               	movlw	2
  7160  1637  00A4               	movwf	??_setPowerOutput+1
  7161  1638  0824               	movf	??_setPowerOutput+1,w
  7162  1639  00F7               	movwf	sendBulk@len
  7163  163A  0825               	movf	setPowerOutput@radio,w
  7164  163B  3188  2069  3196   	fcall	_sendBulk
  7165  163E                     l238:
  7166  163E  0008               	return
  7167  163F                     __end_of_setPowerOutput:
  7168                           
  7169                           	psect	text10
  7170  160D                     __ptext10:	
  7171 ;; *************** function _setOperatingMode *****************
  7172 ;; Defined at:
  7173 ;;		line 81 in file "RFM69HCW.c"
  7174 ;; Parameters:    Size  Location     Type
  7175 ;;  radio           1    wreg     PTR struct RFM69HCW
  7176 ;;		 -> main@radio(75), 
  7177 ;;  operatingMod    1   12[COMMON] unsigned char 
  7178 ;; Auto vars:     Size  Location     Type
  7179 ;;  radio           1    5[BANK0 ] PTR struct RFM69HCW
  7180 ;;		 -> main@radio(75), 
  7181 ;;  msg             2    6[BANK0 ] unsigned char [2]
  7182 ;; Return value:  Size  Location     Type
  7183 ;;                  1    wreg      void 
  7184 ;; Registers used:
  7185 ;;		wreg, fsr1l, fsr1h, status,2, status,0, pclath, cstack
  7186 ;; Tracked objects:
  7187 ;;		On entry : 0/0
  7188 ;;		On exit  : 0/0
  7189 ;;		Unchanged: 0/0
  7190 ;; Data sizes:     COMMON   BANK0   BANK1   BANK2   BANK3   BANK4   BANK5   BANK6   BANK7   BANK8   BANK9  BANK10  BANK1
      +1  BANK12
  7191 ;;      Params:         1       0       0       0       0       0       0       0       0       0       0       0       
      +0       0
  7192 ;;      Locals:         0       3       0       0       0       0       0       0       0       0       0       0       
      +0       0
  7193 ;;      Temps:          0       2       0       0       0       0       0       0       0       0       0       0       
      +0       0
  7194 ;;      Totals:         1       5       0       0       0       0       0       0       0       0       0       0       
      +0       0
  7195 ;;Total ram usage:        6 bytes
  7196 ;; Hardware stack levels used: 1
  7197 ;; Hardware stack levels required when called: 2
  7198 ;; This function calls:
  7199 ;;		_sendBulk
  7200 ;; This function is called by:
  7201 ;;		_main
  7202 ;; This function uses a non-reentrant model
  7203 ;;
  7204                           
  7205                           
  7206                           ;psect for function _setOperatingMode
  7207  160D                     _setOperatingMode:
  7208                           
  7209                           ;incstack = 0
  7210                           ; Regs used in _setOperatingMode: [wreg+fsr1l+fsr1h+status,2+status,0+pclath+cstack]
  7211                           ;setOperatingMode@radio stored from wreg
  7212  160D  0020               	movlb	0	; select bank0
  7213  160E  00A5               	movwf	setOperatingMode@radio
  7214  160F                     l2647:
  7215                           
  7216                           ;RFM69HCW.c: 82:     byte msg[] = {0x01 | 0x80, operatingMode};
  7217  160F  01A6               	clrf	setOperatingMode@msg
  7218  1610  01A7               	clrf	setOperatingMode@msg+1
  7219  1611                     l2649:
  7220  1611  3081               	movlw	129
  7221  1612  00A3               	movwf	??_setOperatingMode
  7222  1613  0823               	movf	??_setOperatingMode,w
  7223  1614  00A6               	movwf	setOperatingMode@msg
  7224  1615                     l2651:
  7225  1615  087C               	movf	setOperatingMode@operatingMode,w
  7226  1616  00A3               	movwf	??_setOperatingMode
  7227  1617  0823               	movf	??_setOperatingMode,w
  7228  1618  00A7               	movwf	setOperatingMode@msg+1
  7229  1619                     l2653:
  7230                           
  7231                           ;RFM69HCW.c: 83:     sendBulk(radio, msg, 2);
  7232  1619  3026               	movlw	(low (setOperatingMode@msg| 0))& (0+255)
  7233  161A  00A3               	movwf	??_setOperatingMode
  7234  161B  0823               	movf	??_setOperatingMode,w
  7235  161C  00F6               	movwf	sendBulk@msgs
  7236  161D  3002               	movlw	2
  7237  161E  00A4               	movwf	??_setOperatingMode+1
  7238  161F  0824               	movf	??_setOperatingMode+1,w
  7239  1620  00F7               	movwf	sendBulk@len
  7240  1621  0825               	movf	setOperatingMode@radio,w
  7241  1622  3188  2069  3196   	fcall	_sendBulk
  7242  1625                     l206:
  7243  1625  0008               	return
  7244  1626                     __end_of_setOperatingMode:
  7245                           
  7246                           	psect	text11
  7247  15F4                     __ptext11:	
  7248 ;; *************** function _setAutoMode *****************
  7249 ;; Defined at:
  7250 ;;		line 200 in file "RFM69HCW.c"
  7251 ;; Parameters:    Size  Location     Type
  7252 ;;  radio           1    wreg     PTR struct RFM69HCW
  7253 ;;		 -> main@radio(75), 
  7254 ;;  autoModes       1   12[COMMON] unsigned char 
  7255 ;; Auto vars:     Size  Location     Type
  7256 ;;  radio           1    5[BANK0 ] PTR struct RFM69HCW
  7257 ;;		 -> main@radio(75), 
  7258 ;;  msg             2    6[BANK0 ] unsigned char [2]
  7259 ;; Return value:  Size  Location     Type
  7260 ;;                  1    wreg      void 
  7261 ;; Registers used:
  7262 ;;		wreg, fsr1l, fsr1h, status,2, status,0, pclath, cstack
  7263 ;; Tracked objects:
  7264 ;;		On entry : 0/0
  7265 ;;		On exit  : 0/0
  7266 ;;		Unchanged: 0/0
  7267 ;; Data sizes:     COMMON   BANK0   BANK1   BANK2   BANK3   BANK4   BANK5   BANK6   BANK7   BANK8   BANK9  BANK10  BANK1
      +1  BANK12
  7268 ;;      Params:         1       0       0       0       0       0       0       0       0       0       0       0       
      +0       0
  7269 ;;      Locals:         0       3       0       0       0       0       0       0       0       0       0       0       
      +0       0
  7270 ;;      Temps:          0       2       0       0       0       0       0       0       0       0       0       0       
      +0       0
  7271 ;;      Totals:         1       5       0       0       0       0       0       0       0       0       0       0       
      +0       0
  7272 ;;Total ram usage:        6 bytes
  7273 ;; Hardware stack levels used: 1
  7274 ;; Hardware stack levels required when called: 2
  7275 ;; This function calls:
  7276 ;;		_sendBulk
  7277 ;; This function is called by:
  7278 ;;		_main
  7279 ;; This function uses a non-reentrant model
  7280 ;;
  7281                           
  7282                           
  7283                           ;psect for function _setAutoMode
  7284  15F4                     _setAutoMode:
  7285                           
  7286                           ;incstack = 0
  7287                           ; Regs used in _setAutoMode: [wreg+fsr1l+fsr1h+status,2+status,0+pclath+cstack]
  7288                           ;setAutoMode@radio stored from wreg
  7289  15F4  0020               	movlb	0	; select bank0
  7290  15F5  00A5               	movwf	setAutoMode@radio
  7291  15F6                     l2655:
  7292                           
  7293                           ;RFM69HCW.c: 201:     byte msg[] = {0x3B | 0x80, autoModes};
  7294  15F6  01A6               	clrf	setAutoMode@msg
  7295  15F7  01A7               	clrf	setAutoMode@msg+1
  7296  15F8                     l2657:
  7297  15F8  30BB               	movlw	187
  7298  15F9  00A3               	movwf	??_setAutoMode
  7299  15FA  0823               	movf	??_setAutoMode,w
  7300  15FB  00A6               	movwf	setAutoMode@msg
  7301  15FC                     l2659:
  7302  15FC  087C               	movf	setAutoMode@autoModes,w
  7303  15FD  00A3               	movwf	??_setAutoMode
  7304  15FE  0823               	movf	??_setAutoMode,w
  7305  15FF  00A7               	movwf	setAutoMode@msg+1
  7306  1600                     l2661:
  7307                           
  7308                           ;RFM69HCW.c: 202:     sendBulk(radio, msg, 2);
  7309  1600  3026               	movlw	(low (setAutoMode@msg| 0))& (0+255)
  7310  1601  00A3               	movwf	??_setAutoMode
  7311  1602  0823               	movf	??_setAutoMode,w
  7312  1603  00F6               	movwf	sendBulk@msgs
  7313  1604  3002               	movlw	2
  7314  1605  00A4               	movwf	??_setAutoMode+1
  7315  1606  0824               	movf	??_setAutoMode+1,w
  7316  1607  00F7               	movwf	sendBulk@len
  7317  1608  0825               	movf	setAutoMode@radio,w
  7318  1609  3188  2069  3195   	fcall	_sendBulk
  7319  160C                     l299:
  7320  160C  0008               	return
  7321  160D                     __end_of_setAutoMode:
  7322                           
  7323                           	psect	text12
  7324  080A                     __ptext12:	
  7325 ;; *************** function _sendPayload *****************
  7326 ;; Defined at:
  7327 ;;		line 131 in file "RFM69HCW.c"
  7328 ;; Parameters:    Size  Location     Type
  7329 ;;  radio           1    wreg     PTR struct RFM69HCW
  7330 ;;		 -> main@radio(75), 
  7331 ;;  payload         1    6[COMMON] PTR unsigned char 
  7332 ;;		 -> thermistorTemp(4), 
  7333 ;; Auto vars:     Size  Location     Type
  7334 ;;  radio           1   11[COMMON] PTR struct RFM69HCW
  7335 ;;		 -> main@radio(75), 
  7336 ;;  i               2    9[COMMON] int 
  7337 ;; Return value:  Size  Location     Type
  7338 ;;                  1    wreg      void 
  7339 ;; Registers used:
  7340 ;;		wreg, fsr1l, fsr1h, status,2, status,0, pclath, cstack
  7341 ;; Tracked objects:
  7342 ;;		On entry : 0/0
  7343 ;;		On exit  : 0/0
  7344 ;;		Unchanged: 0/0
  7345 ;; Data sizes:     COMMON   BANK0   BANK1   BANK2   BANK3   BANK4   BANK5   BANK6   BANK7   BANK8   BANK9  BANK10  BANK1
      +1  BANK12
  7346 ;;      Params:         1       0       0       0       0       0       0       0       0       0       0       0       
      +0       0
  7347 ;;      Locals:         3       0       0       0       0       0       0       0       0       0       0       0       
      +0       0
  7348 ;;      Temps:          2       0       0       0       0       0       0       0       0       0       0       0       
      +0       0
  7349 ;;      Totals:         6       0       0       0       0       0       0       0       0       0       0       0       
      +0       0
  7350 ;;Total ram usage:        6 bytes
  7351 ;; Hardware stack levels used: 1
  7352 ;; Hardware stack levels required when called: 1
  7353 ;; This function calls:
  7354 ;;		_send
  7355 ;;		_setPinWithMask
  7356 ;; This function is called by:
  7357 ;;		_main
  7358 ;; This function uses a non-reentrant model
  7359 ;;
  7360                           
  7361                           
  7362                           ;psect for function _sendPayload
  7363  080A                     _sendPayload:
  7364                           
  7365                           ;incstack = 0
  7366                           ; Regs used in _sendPayload: [wreg+fsr1l+fsr1h+status,2+status,0+pclath+cstack]
  7367                           ;sendPayload@radio stored from wreg
  7368  080A  00FB               	movwf	sendPayload@radio
  7369  080B                     l2681:
  7370                           
  7371                           ;RFM69HCW.c: 132:     setPinWithMask(radio->SSport, radio->SSbit, 0);
  7372  080B  087B               	movf	sendPayload@radio,w
  7373  080C  3E28               	addlw	40
  7374  080D  0086               	movwf	6
  7375  080E  3001               	movlw	1	; select bank2/3
  7376  080F  0087               	movwf	7
  7377  0810  3F40               	moviw [0]fsr1
  7378  0811  00F0               	movwf	setPinWithMask@pPort
  7379  0812  3F41               	moviw [1]fsr1
  7380  0813  00F1               	movwf	setPinWithMask@pPort+1
  7381  0814  087B               	movf	sendPayload@radio,w
  7382  0815  3E2A               	addlw	42
  7383  0816  0086               	movwf	6
  7384  0817  3001               	movlw	1	; select bank2/3
  7385  0818  0087               	movwf	7
  7386  0819  0801               	movf	1,w
  7387  081A  00F7               	movwf	??_sendPayload
  7388  081B  0877               	movf	??_sendPayload,w
  7389  081C  00F2               	movwf	setPinWithMask@iPin
  7390  081D  01F3               	clrf	setPinWithMask@value
  7391  081E  3197  271B  3188   	fcall	_setPinWithMask
  7392                           
  7393                           ;RFM69HCW.c: 133:     send(radio, 0x00 | 0x80);
  7394  0821  3080               	movlw	128
  7395  0822  00F7               	movwf	??_sendPayload
  7396  0823  0877               	movf	??_sendPayload,w
  7397  0824  00F0               	movwf	send@msg
  7398  0825  087B               	movf	sendPayload@radio,w
  7399  0826  3188  20CD  3188   	fcall	_send
  7400  0829                     l2683:
  7401                           
  7402                           ;RFM69HCW.c: 134:     for (int i = 0; i < radio->packet_length; i++) {
  7403  0829  01F9               	clrf	sendPayload@i
  7404  082A  01FA               	clrf	sendPayload@i+1
  7405  082B  283F               	goto	l2689
  7406  082C                     l2685:
  7407                           
  7408                           ;RFM69HCW.c: 135:         send(radio, payload[i]);
  7409  082C  0879               	movf	sendPayload@i,w
  7410  082D  0776               	addwf	sendPayload@payload,w
  7411  082E  00F7               	movwf	??_sendPayload
  7412  082F  0877               	movf	??_sendPayload,w
  7413  0830  0086               	movwf	6
  7414  0831  3001               	movlw	1	; select bank2/3
  7415  0832  0087               	movwf	7
  7416  0833  0801               	movf	1,w
  7417  0834  00F8               	movwf	??_sendPayload+1
  7418  0835  0878               	movf	??_sendPayload+1,w
  7419  0836  00F0               	movwf	send@msg
  7420  0837  087B               	movf	sendPayload@radio,w
  7421  0838  3188  20CD  3188   	fcall	_send
  7422  083B                     l2687:
  7423                           
  7424                           ;RFM69HCW.c: 136:     }
  7425  083B  3001               	movlw	1
  7426  083C  07F9               	addwf	sendPayload@i,f
  7427  083D  3000               	movlw	0
  7428  083E  3DFA               	addwfc	sendPayload@i+1,f
  7429  083F                     l2689:
  7430  083F  087B               	movf	sendPayload@radio,w
  7431  0840  3E2B               	addlw	43
  7432  0841  0086               	movwf	6
  7433  0842  3001               	movlw	1	; select bank2/3
  7434  0843  0087               	movwf	7
  7435  0844  087A               	movf	sendPayload@i+1,w
  7436  0845  3A80               	xorlw	128
  7437  0846  00F7               	movwf	??_sendPayload
  7438  0847  3080               	movlw	128
  7439  0848  0277               	subwf	??_sendPayload,w
  7440  0849  1D03               	skipz
  7441  084A  284D               	goto	u2815
  7442  084B  0801               	movf	1,w
  7443  084C  0279               	subwf	sendPayload@i,w
  7444  084D                     u2815:
  7445  084D  1C03               	skipc
  7446  084E  2850               	goto	u2811
  7447  084F  2851               	goto	u2810
  7448  0850                     u2811:
  7449  0850  282C               	goto	l2685
  7450  0851                     u2810:
  7451  0851                     l2691:
  7452                           
  7453                           ;RFM69HCW.c: 137:     setPinWithMask(radio->SSport, radio->SSbit, 1);
  7454  0851  087B               	movf	sendPayload@radio,w
  7455  0852  3E28               	addlw	40
  7456  0853  0086               	movwf	6
  7457  0854  3001               	movlw	1	; select bank2/3
  7458  0855  0087               	movwf	7
  7459  0856  3F40               	moviw [0]fsr1
  7460  0857  00F0               	movwf	setPinWithMask@pPort
  7461  0858  3F41               	moviw [1]fsr1
  7462  0859  00F1               	movwf	setPinWithMask@pPort+1
  7463  085A  087B               	movf	sendPayload@radio,w
  7464  085B  3E2A               	addlw	42
  7465  085C  0086               	movwf	6
  7466  085D  3001               	movlw	1	; select bank2/3
  7467  085E  0087               	movwf	7
  7468  085F  0801               	movf	1,w
  7469  0860  00F7               	movwf	??_sendPayload
  7470  0861  0877               	movf	??_sendPayload,w
  7471  0862  00F2               	movwf	setPinWithMask@iPin
  7472  0863  01F3               	clrf	setPinWithMask@value
  7473  0864  0AF3               	incf	setPinWithMask@value,f
  7474  0865  3197  271B  3188   	fcall	_setPinWithMask
  7475  0868                     l244:
  7476  0868  0008               	return
  7477  0869                     __end_of_sendPayload:
  7478                           
  7479                           	psect	text13
  7480  1741                     __ptext13:	
  7481 ;; *************** function _initRadio *****************
  7482 ;; Defined at:
  7483 ;;		line 115 in file "RFM69HCW.c"
  7484 ;; Parameters:    Size  Location     Type
  7485 ;;  radio           1    wreg     PTR struct RFM69HCW
  7486 ;;		 -> main@radio(75), 
  7487 ;; Auto vars:     Size  Location     Type
  7488 ;;  radio           1   16[BANK0 ] PTR struct RFM69HCW
  7489 ;;		 -> main@radio(75), 
  7490 ;; Return value:  Size  Location     Type
  7491 ;;                  1    wreg      void 
  7492 ;; Registers used:
  7493 ;;		wreg, fsr1l, fsr1h, status,2, status,0, pclath, cstack
  7494 ;; Tracked objects:
  7495 ;;		On entry : 0/0
  7496 ;;		On exit  : 0/0
  7497 ;;		Unchanged: 0/0
  7498 ;; Data sizes:     COMMON   BANK0   BANK1   BANK2   BANK3   BANK4   BANK5   BANK6   BANK7   BANK8   BANK9  BANK10  BANK1
      +1  BANK12
  7499 ;;      Params:         0       0       0       0       0       0       0       0       0       0       0       0       
      +0       0
  7500 ;;      Locals:         0       1       0       0       0       0       0       0       0       0       0       0       
      +0       0
  7501 ;;      Temps:          0       0       0       0       0       0       0       0       0       0       0       0       
      +0       0
  7502 ;;      Totals:         0       1       0       0       0       0       0       0       0       0       0       0       
      +0       0
  7503 ;;Total ram usage:        1 bytes
  7504 ;; Hardware stack levels used: 1
  7505 ;; Hardware stack levels required when called: 4
  7506 ;; This function calls:
  7507 ;;		_setModulationThreshold
  7508 ;;		_setNodeAddress
  7509 ;;		_setPacketFormat
  7510 ;;		_setPacketLength
  7511 ;;		_setPreambleLength
  7512 ;;		_setRSSIThreshold
  7513 ;;		_setRecommendedParams
  7514 ;;		_setSyncWords
  7515 ;; This function is called by:
  7516 ;;		_main
  7517 ;; This function uses a non-reentrant model
  7518 ;;
  7519                           
  7520                           
  7521                           ;psect for function _initRadio
  7522  1741                     _initRadio:
  7523                           
  7524                           ;incstack = 0
  7525                           ; Regs used in _initRadio: [wreg+fsr1l+fsr1h+status,2+status,0+pclath+cstack]
  7526                           ;initRadio@radio stored from wreg
  7527  1741  0020               	movlb	0	; select bank0
  7528  1742  00B0               	movwf	initRadio@radio
  7529  1743                     l2637:
  7530                           
  7531                           ;RFM69HCW.c: 116:     setSyncWords(radio);
  7532  1743  0830               	movf	initRadio@radio,w
  7533  1744  3180  2008  3197   	fcall	_setSyncWords
  7534                           
  7535                           ;RFM69HCW.c: 117:     setPacketLength(radio);
  7536  1747  0020               	movlb	0	; select bank0
  7537  1748  0830               	movf	initRadio@radio,w
  7538  1749  3196  265D  3197   	fcall	_setPacketLength
  7539                           
  7540                           ;RFM69HCW.c: 118:     setNodeAddress(radio);
  7541  174C  0020               	movlb	0	; select bank0
  7542  174D  0830               	movf	initRadio@radio,w
  7543  174E  3196  263F  3197   	fcall	_setNodeAddress
  7544                           
  7545                           ;RFM69HCW.c: 119:     setRSSIThreshold(radio);
  7546  1751  0020               	movlb	0	; select bank0
  7547  1752  0830               	movf	initRadio@radio,w
  7548  1753  3196  267B  3197   	fcall	_setRSSIThreshold
  7549                           
  7550                           ;RFM69HCW.c: 120:     setPacketFormat(radio);
  7551  1756  0020               	movlb	0	; select bank0
  7552  1757  0830               	movf	initRadio@radio,w
  7553  1758  3195  257B  3197   	fcall	_setPacketFormat
  7554                           
  7555                           ;RFM69HCW.c: 121:     setRecommendedParams(radio);
  7556  175B  0020               	movlb	0	; select bank0
  7557  175C  0830               	movf	initRadio@radio,w
  7558  175D  3195  2532  3197   	fcall	_setRecommendedParams
  7559                           
  7560                           ;RFM69HCW.c: 122:     setModulationThreshold(radio);
  7561  1760  0020               	movlb	0	; select bank0
  7562  1761  0830               	movf	initRadio@radio,w
  7563  1762  3196  2699  3197   	fcall	_setModulationThreshold
  7564                           
  7565                           ;RFM69HCW.c: 123:     setPreambleLength(radio);
  7566  1765  0020               	movlb	0	; select bank0
  7567  1766  0830               	movf	initRadio@radio,w
  7568  1767  3195  2592  3197   	fcall	_setPreambleLength
  7569  176A                     l233:
  7570  176A  0008               	return
  7571  176B                     __end_of_initRadio:
  7572                           
  7573                           	psect	text14
  7574  0008                     __ptext14:	
  7575 ;; *************** function _setSyncWords *****************
  7576 ;; Defined at:
  7577 ;;		line 51 in file "RFM69HCW.c"
  7578 ;; Parameters:    Size  Location     Type
  7579 ;;  radio           1    wreg     PTR struct RFM69HCW
  7580 ;;		 -> main@radio(75), 
  7581 ;; Auto vars:     Size  Location     Type
  7582 ;;  radio           1   13[BANK0 ] PTR struct RFM69HCW
  7583 ;;		 -> main@radio(75), 
  7584 ;;  i               2   14[BANK0 ] int 
  7585 ;;  msg            10    3[BANK0 ] unsigned char [10]
  7586 ;; Return value:  Size  Location     Type
  7587 ;;                  1    wreg      void 
  7588 ;; Registers used:
  7589 ;;		wreg, fsr1l, fsr1h, status,2, status,0, pclath, cstack
  7590 ;; Tracked objects:
  7591 ;;		On entry : 0/0
  7592 ;;		On exit  : 0/0
  7593 ;;		Unchanged: 0/0
  7594 ;; Data sizes:     COMMON   BANK0   BANK1   BANK2   BANK3   BANK4   BANK5   BANK6   BANK7   BANK8   BANK9  BANK10  BANK1
      +1  BANK12
  7595 ;;      Params:         0       0       0       0       0       0       0       0       0       0       0       0       
      +0       0
  7596 ;;      Locals:         0      13       0       0       0       0       0       0       0       0       0       0       
      +0       0
  7597 ;;      Temps:          2       0       0       0       0       0       0       0       0       0       0       0       
      +0       0
  7598 ;;      Totals:         2      13       0       0       0       0       0       0       0       0       0       0       
      +0       0
  7599 ;;Total ram usage:       15 bytes
  7600 ;; Hardware stack levels used: 1
  7601 ;; Hardware stack levels required when called: 2
  7602 ;; This function calls:
  7603 ;;		_sendBulk
  7604 ;; This function is called by:
  7605 ;;		_initRadio
  7606 ;; This function uses a non-reentrant model
  7607 ;;
  7608                           
  7609                           
  7610                           ;psect for function _setSyncWords
  7611  0008                     _setSyncWords:
  7612                           
  7613                           ;incstack = 0
  7614                           ; Regs used in _setSyncWords: [wreg+fsr1l+fsr1h+status,2+status,0+pclath+cstack]
  7615                           ;setSyncWords@radio stored from wreg
  7616  0008  0020               	movlb	0	; select bank0
  7617  0009  00AD               	movwf	setSyncWords@radio
  7618  000A                     l2571:
  7619                           
  7620                           ;RFM69HCW.c: 52:     unsigned char msg[10];;RFM69HCW.c: 53:     msg[0] = 0x2e | 0x80;
  7621  000A  30AE               	movlw	174
  7622  000B  00FC               	movwf	??_setSyncWords
  7623  000C  087C               	movf	??_setSyncWords,w
  7624  000D  00A3               	movwf	setSyncWords@msg
  7625                           
  7626                           ;RFM69HCW.c: 54:     msg[1] = 0b10011000;
  7627  000E  3098               	movlw	152
  7628  000F  00FC               	movwf	??_setSyncWords
  7629  0010  087C               	movf	??_setSyncWords,w
  7630  0011  00A4               	movwf	setSyncWords@msg+1
  7631                           
  7632                           ;RFM69HCW.c: 55:     for (int i = 2; i < 10; i++) {
  7633  0012  3002               	movlw	2
  7634  0013  00AE               	movwf	setSyncWords@i
  7635  0014  3000               	movlw	0
  7636  0015  00AF               	movwf	setSyncWords@i+1
  7637  0016                     l2575:
  7638                           
  7639                           ;RFM69HCW.c: 56:         msg[i] = (radio->sync_words[i]);
  7640  0016  0020               	movlb	0	; select bank0
  7641  0017  082E               	movf	setSyncWords@i,w
  7642  0018  072D               	addwf	setSyncWords@radio,w
  7643  0019  00FC               	movwf	??_setSyncWords
  7644  001A  087C               	movf	??_setSyncWords,w
  7645  001B  3E42               	addlw	66
  7646  001C  0086               	movwf	6
  7647  001D  3001               	movlw	1	; select bank2/3
  7648  001E  0087               	movwf	7
  7649  001F  0801               	movf	1,w
  7650  0020  00FD               	movwf	??_setSyncWords+1
  7651  0021  082E               	movf	setSyncWords@i,w
  7652  0022  3E23               	addlw	(low (setSyncWords@msg| 0))& (0+255)
  7653  0023  0086               	movwf	6
  7654  0024  0187               	clrf	7
  7655  0025  087D               	movf	??_setSyncWords+1,w
  7656  0026  0081               	movwf	1
  7657  0027                     l2577:
  7658                           
  7659                           ;RFM69HCW.c: 57:     }
  7660  0027  3001               	movlw	1
  7661  0028  07AE               	addwf	setSyncWords@i,f
  7662  0029  3000               	movlw	0
  7663  002A  3DAF               	addwfc	setSyncWords@i+1,f
  7664  002B                     l2579:
  7665  002B  082F               	movf	setSyncWords@i+1,w
  7666  002C  3A80               	xorlw	128
  7667  002D  00FC               	movwf	??_setSyncWords
  7668  002E  3080               	movlw	128
  7669  002F  027C               	subwf	??_setSyncWords,w
  7670  0030  1D03               	skipz
  7671  0031  2834               	goto	u2795
  7672  0032  300A               	movlw	10
  7673  0033  022E               	subwf	setSyncWords@i,w
  7674  0034                     u2795:
  7675  0034  1C03               	skipc
  7676  0035  2837               	goto	u2791
  7677  0036  2838               	goto	u2790
  7678  0037                     u2791:
  7679  0037  2816               	goto	l2575
  7680  0038                     u2790:
  7681  0038                     l2581:
  7682                           
  7683                           ;RFM69HCW.c: 58:     sendBulk(radio, msg, 10);
  7684  0038  3023               	movlw	(low (setSyncWords@msg| 0))& (0+255)
  7685  0039  00FC               	movwf	??_setSyncWords
  7686  003A  087C               	movf	??_setSyncWords,w
  7687  003B  00F6               	movwf	sendBulk@msgs
  7688  003C  300A               	movlw	10
  7689  003D  00FD               	movwf	??_setSyncWords+1
  7690  003E  087D               	movf	??_setSyncWords+1,w
  7691  003F  00F7               	movwf	sendBulk@len
  7692  0040  0020               	movlb	0	; select bank0
  7693  0041  082D               	movf	setSyncWords@radio,w
  7694  0042  3188  2069  3180   	fcall	_sendBulk
  7695  0045                     l181:
  7696  0045  0008               	return
  7697  0046                     __end_of_setSyncWords:
  7698                           
  7699                           	psect	text15
  7700  1532                     __ptext15:	
  7701 ;; *************** function _setRecommendedParams *****************
  7702 ;; Defined at:
  7703 ;;		line 86 in file "RFM69HCW.c"
  7704 ;; Parameters:    Size  Location     Type
  7705 ;;  radio           1    wreg     PTR struct RFM69HCW
  7706 ;;		 -> main@radio(75), 
  7707 ;; Auto vars:     Size  Location     Type
  7708 ;;  radio           1   12[BANK0 ] PTR struct RFM69HCW
  7709 ;;		 -> main@radio(75), 
  7710 ;; Return value:  Size  Location     Type
  7711 ;;                  1    wreg      void 
  7712 ;; Registers used:
  7713 ;;		wreg, fsr1l, fsr1h, status,2, status,0, pclath, cstack
  7714 ;; Tracked objects:
  7715 ;;		On entry : 0/0
  7716 ;;		On exit  : 0/0
  7717 ;;		Unchanged: 0/0
  7718 ;; Data sizes:     COMMON   BANK0   BANK1   BANK2   BANK3   BANK4   BANK5   BANK6   BANK7   BANK8   BANK9  BANK10  BANK1
      +1  BANK12
  7719 ;;      Params:         0       0       0       0       0       0       0       0       0       0       0       0       
      +0       0
  7720 ;;      Locals:         0       1       0       0       0       0       0       0       0       0       0       0       
      +0       0
  7721 ;;      Temps:          0       1       0       0       0       0       0       0       0       0       0       0       
      +0       0
  7722 ;;      Totals:         0       2       0       0       0       0       0       0       0       0       0       0       
      +0       0
  7723 ;;Total ram usage:        2 bytes
  7724 ;; Hardware stack levels used: 1
  7725 ;; Hardware stack levels required when called: 3
  7726 ;; This function calls:
  7727 ;;		_sendPairs
  7728 ;; This function is called by:
  7729 ;;		_initRadio
  7730 ;; This function uses a non-reentrant model
  7731 ;;
  7732                           
  7733                           
  7734                           ;psect for function _setRecommendedParams
  7735  1532                     _setRecommendedParams:
  7736                           
  7737                           ;incstack = 0
  7738                           ; Regs used in _setRecommendedParams: [wreg+fsr1l+fsr1h+status,2+status,0+pclath+cstack]
  7739                           ;setRecommendedParams@radio stored from wreg
  7740  1532  0020               	movlb	0	; select bank0
  7741  1533  00AC               	movwf	setRecommendedParams@radio
  7742  1534                     l2611:
  7743                           
  7744                           ;RFM69HCW.c: 87:     sendPairs(radio, recommended_params, 8);
  7745  1534  3020               	movlw	(low (_recommended_params| (0+512)))& (0+255)
  7746  1535  00AB               	movwf	??_setRecommendedParams
  7747  1536  082B               	movf	??_setRecommendedParams,w
  7748  1537  00A3               	movwf	sendPairs@msgs
  7749  1538  3008               	movlw	8
  7750  1539  00A4               	movwf	sendPairs@len
  7751  153A  3000               	movlw	0
  7752  153B  00A5               	movwf	sendPairs@len+1
  7753  153C  082C               	movf	setRecommendedParams@radio,w
  7754  153D  3197  276B  3195   	fcall	_sendPairs
  7755  1540                     l209:
  7756  1540  0008               	return
  7757  1541                     __end_of_setRecommendedParams:
  7758                           
  7759                           	psect	text16
  7760  176B                     __ptext16:	
  7761 ;; *************** function _sendPairs *****************
  7762 ;; Defined at:
  7763 ;;		line 5 in file "RFM69HCW.c"
  7764 ;; Parameters:    Size  Location     Type
  7765 ;;  radio           1    wreg     PTR struct RFM69HCW
  7766 ;;		 -> main@radio(75), 
  7767 ;;  msgs            1    3[BANK0 ] PTR unsigned char 
  7768 ;;		 -> recommended_params(10), 
  7769 ;;  len             2    4[BANK0 ] const int 
  7770 ;; Auto vars:     Size  Location     Type
  7771 ;;  radio           1    6[BANK0 ] PTR struct RFM69HCW
  7772 ;;		 -> main@radio(75), 
  7773 ;;  i               2    9[BANK0 ] int 
  7774 ;;  msg             2    7[BANK0 ] unsigned char [2]
  7775 ;; Return value:  Size  Location     Type
  7776 ;;                  1    wreg      void 
  7777 ;; Registers used:
  7778 ;;		wreg, fsr1l, fsr1h, status,2, status,0, pclath, cstack
  7779 ;; Tracked objects:
  7780 ;;		On entry : 0/0
  7781 ;;		On exit  : 0/0
  7782 ;;		Unchanged: 0/0
  7783 ;; Data sizes:     COMMON   BANK0   BANK1   BANK2   BANK3   BANK4   BANK5   BANK6   BANK7   BANK8   BANK9  BANK10  BANK1
      +1  BANK12
  7784 ;;      Params:         0       3       0       0       0       0       0       0       0       0       0       0       
      +0       0
  7785 ;;      Locals:         0       5       0       0       0       0       0       0       0       0       0       0       
      +0       0
  7786 ;;      Temps:          2       0       0       0       0       0       0       0       0       0       0       0       
      +0       0
  7787 ;;      Totals:         2       8       0       0       0       0       0       0       0       0       0       0       
      +0       0
  7788 ;;Total ram usage:       10 bytes
  7789 ;; Hardware stack levels used: 1
  7790 ;; Hardware stack levels required when called: 2
  7791 ;; This function calls:
  7792 ;;		_sendBulk
  7793 ;; This function is called by:
  7794 ;;		_setRecommendedParams
  7795 ;; This function uses a non-reentrant model
  7796 ;;
  7797                           
  7798                           
  7799                           ;psect for function _sendPairs
  7800  176B                     _sendPairs:
  7801                           
  7802                           ;incstack = 0
  7803                           ; Regs used in _sendPairs: [wreg+fsr1l+fsr1h+status,2+status,0+pclath+cstack]
  7804                           ;sendPairs@radio stored from wreg
  7805  176B  0020               	movlb	0	; select bank0
  7806  176C  00A6               	movwf	sendPairs@radio
  7807  176D                     l2101:
  7808                           
  7809                           ;RFM69HCW.c: 6:     byte msg[2] = {0};
  7810  176D  01A7               	clrf	sendPairs@msg
  7811  176E  01A8               	clrf	sendPairs@msg+1
  7812                           
  7813                           ;RFM69HCW.c: 7:     for (int i = 0; i < len; i += 2) {
  7814  176F  01A9               	clrf	sendPairs@i
  7815  1770  01AA               	clrf	sendPairs@i+1
  7816  1771                     l2103:
  7817  1771  0825               	movf	sendPairs@len+1,w
  7818  1772  3A80               	xorlw	128
  7819  1773  00FC               	movwf	??_sendPairs
  7820  1774  3080               	movlw	128
  7821  1775  027C               	subwf	??_sendPairs,w
  7822  1776  1D03               	skipz
  7823  1777  2F7A               	goto	u1985
  7824  1778  3001               	movlw	1
  7825  1779  0224               	subwf	sendPairs@len,w
  7826  177A                     u1985:
  7827  177A  1803               	skipnc
  7828  177B  2F7D               	goto	u1981
  7829  177C  2F7E               	goto	u1980
  7830  177D                     u1981:
  7831  177D  2F7F               	goto	l2107
  7832  177E                     u1980:
  7833  177E  2FB4               	goto	l154
  7834  177F                     l2107:
  7835                           
  7836                           ;RFM69HCW.c: 8:         msg[0] = msgs[i];
  7837  177F  0020               	movlb	0	; select bank0
  7838  1780  0829               	movf	sendPairs@i,w
  7839  1781  0723               	addwf	sendPairs@msgs,w
  7840  1782  00FC               	movwf	??_sendPairs
  7841  1783  087C               	movf	??_sendPairs,w
  7842  1784  0086               	movwf	6
  7843  1785  3002               	movlw	2	; select bank4/5
  7844  1786  0087               	movwf	7
  7845  1787  0801               	movf	1,w
  7846  1788  00FD               	movwf	??_sendPairs+1
  7847  1789  087D               	movf	??_sendPairs+1,w
  7848  178A  00A7               	movwf	sendPairs@msg
  7849                           
  7850                           ;RFM69HCW.c: 9:         msg[1] = msgs[i + 1];
  7851  178B  0829               	movf	sendPairs@i,w
  7852  178C  0723               	addwf	sendPairs@msgs,w
  7853  178D  00FC               	movwf	??_sendPairs
  7854  178E  087C               	movf	??_sendPairs,w
  7855  178F  0086               	movwf	6
  7856  1790  3002               	movlw	2	; select bank4/5
  7857  1791  0087               	movwf	7
  7858  1792  3002               	movlw	2	; select bank4/5
  7859  1793  3F41               	moviw [1]fsr1
  7860  1794  00A8               	movwf	sendPairs@msg+1
  7861  1795                     l2109:
  7862                           
  7863                           ;RFM69HCW.c: 10:         sendBulk(radio, msg, 2);
  7864  1795  3027               	movlw	(low (sendPairs@msg| 0))& (0+255)
  7865  1796  00FC               	movwf	??_sendPairs
  7866  1797  087C               	movf	??_sendPairs,w
  7867  1798  00F6               	movwf	sendBulk@msgs
  7868  1799  3002               	movlw	2
  7869  179A  00FD               	movwf	??_sendPairs+1
  7870  179B  087D               	movf	??_sendPairs+1,w
  7871  179C  00F7               	movwf	sendBulk@len
  7872  179D  0826               	movf	sendPairs@radio,w
  7873  179E  3188  2069  3197   	fcall	_sendBulk
  7874  17A1                     l2111:
  7875                           
  7876                           ;RFM69HCW.c: 11:     }
  7877  17A1  3002               	movlw	2
  7878  17A2  0020               	movlb	0	; select bank0
  7879  17A3  07A9               	addwf	sendPairs@i,f
  7880  17A4  3000               	movlw	0
  7881  17A5  3DAA               	addwfc	sendPairs@i+1,f
  7882  17A6                     l2113:
  7883  17A6  082A               	movf	sendPairs@i+1,w
  7884  17A7  3A80               	xorlw	128
  7885  17A8  00FC               	movwf	??_sendPairs
  7886  17A9  0825               	movf	sendPairs@len+1,w
  7887  17AA  3A80               	xorlw	128
  7888  17AB  027C               	subwf	??_sendPairs,w
  7889  17AC  1D03               	skipz
  7890  17AD  2FB0               	goto	u1995
  7891  17AE  0824               	movf	sendPairs@len,w
  7892  17AF  0229               	subwf	sendPairs@i,w
  7893  17B0                     u1995:
  7894  17B0  1C03               	skipc
  7895  17B1  2FB3               	goto	u1991
  7896  17B2  2FB4               	goto	u1990
  7897  17B3                     u1991:
  7898  17B3  2F7F               	goto	l2107
  7899  17B4                     u1990:
  7900  17B4                     l154:
  7901  17B4  0008               	return
  7902  17B5                     __end_of_sendPairs:
  7903                           
  7904                           	psect	text17
  7905  167B                     __ptext17:	
  7906 ;; *************** function _setRSSIThreshold *****************
  7907 ;; Defined at:
  7908 ;;		line 71 in file "RFM69HCW.c"
  7909 ;; Parameters:    Size  Location     Type
  7910 ;;  radio           1    wreg     PTR struct RFM69HCW
  7911 ;;		 -> main@radio(75), 
  7912 ;; Auto vars:     Size  Location     Type
  7913 ;;  radio           1    5[BANK0 ] PTR struct RFM69HCW
  7914 ;;		 -> main@radio(75), 
  7915 ;;  msg             2    3[BANK0 ] unsigned char [2]
  7916 ;; Return value:  Size  Location     Type
  7917 ;;                  1    wreg      void 
  7918 ;; Registers used:
  7919 ;;		wreg, fsr1l, fsr1h, status,2, status,0, pclath, cstack
  7920 ;; Tracked objects:
  7921 ;;		On entry : 0/0
  7922 ;;		On exit  : 0/0
  7923 ;;		Unchanged: 0/0
  7924 ;; Data sizes:     COMMON   BANK0   BANK1   BANK2   BANK3   BANK4   BANK5   BANK6   BANK7   BANK8   BANK9  BANK10  BANK1
      +1  BANK12
  7925 ;;      Params:         0       0       0       0       0       0       0       0       0       0       0       0       
      +0       0
  7926 ;;      Locals:         0       3       0       0       0       0       0       0       0       0       0       0       
      +0       0
  7927 ;;      Temps:          2       0       0       0       0       0       0       0       0       0       0       0       
      +0       0
  7928 ;;      Totals:         2       3       0       0       0       0       0       0       0       0       0       0       
      +0       0
  7929 ;;Total ram usage:        5 bytes
  7930 ;; Hardware stack levels used: 1
  7931 ;; Hardware stack levels required when called: 2
  7932 ;; This function calls:
  7933 ;;		_sendBulk
  7934 ;; This function is called by:
  7935 ;;		_initRadio
  7936 ;; This function uses a non-reentrant model
  7937 ;;
  7938                           
  7939                           
  7940                           ;psect for function _setRSSIThreshold
  7941  167B                     _setRSSIThreshold:
  7942                           
  7943                           ;incstack = 0
  7944                           ; Regs used in _setRSSIThreshold: [wreg+fsr1l+fsr1h+status,2+status,0+pclath+cstack]
  7945                           ;setRSSIThreshold@radio stored from wreg
  7946  167B  0020               	movlb	0	; select bank0
  7947  167C  00A5               	movwf	setRSSIThreshold@radio
  7948  167D                     l2599:
  7949                           
  7950                           ;RFM69HCW.c: 72:     byte msg[] = {0x29 | 0x80, radio->RSSI_threshold};
  7951  167D  01A3               	clrf	setRSSIThreshold@msg
  7952  167E  01A4               	clrf	setRSSIThreshold@msg+1
  7953  167F                     l2601:
  7954  167F  30A9               	movlw	169
  7955  1680  00FC               	movwf	??_setRSSIThreshold
  7956  1681  087C               	movf	??_setRSSIThreshold,w
  7957  1682  00A3               	movwf	setRSSIThreshold@msg
  7958  1683                     l2603:
  7959  1683  0825               	movf	setRSSIThreshold@radio,w
  7960  1684  3E41               	addlw	65
  7961  1685  0086               	movwf	6
  7962  1686  3001               	movlw	1	; select bank2/3
  7963  1687  0087               	movwf	7
  7964  1688  0801               	movf	1,w
  7965  1689  00FC               	movwf	??_setRSSIThreshold
  7966  168A  087C               	movf	??_setRSSIThreshold,w
  7967  168B  00A4               	movwf	setRSSIThreshold@msg+1
  7968  168C                     l2605:
  7969                           
  7970                           ;RFM69HCW.c: 73:     sendBulk(radio, msg, 2);
  7971  168C  3023               	movlw	(low (setRSSIThreshold@msg| 0))& (0+255)
  7972  168D  00FC               	movwf	??_setRSSIThreshold
  7973  168E  087C               	movf	??_setRSSIThreshold,w
  7974  168F  00F6               	movwf	sendBulk@msgs
  7975  1690  3002               	movlw	2
  7976  1691  00FD               	movwf	??_setRSSIThreshold+1
  7977  1692  087D               	movf	??_setRSSIThreshold+1,w
  7978  1693  00F7               	movwf	sendBulk@len
  7979  1694  0825               	movf	setRSSIThreshold@radio,w
  7980  1695  3188  2069  3196   	fcall	_sendBulk
  7981  1698                     l196:
  7982  1698  0008               	return
  7983  1699                     __end_of_setRSSIThreshold:
  7984                           
  7985                           	psect	text18
  7986  1592                     __ptext18:	
  7987 ;; *************** function _setPreambleLength *****************
  7988 ;; Defined at:
  7989 ;;		line 110 in file "RFM69HCW.c"
  7990 ;; Parameters:    Size  Location     Type
  7991 ;;  radio           1    wreg     PTR struct RFM69HCW
  7992 ;;		 -> main@radio(75), 
  7993 ;; Auto vars:     Size  Location     Type
  7994 ;;  radio           1    5[BANK0 ] PTR struct RFM69HCW
  7995 ;;		 -> main@radio(75), 
  7996 ;;  msg             2    3[BANK0 ] unsigned char [2]
  7997 ;; Return value:  Size  Location     Type
  7998 ;;                  1    wreg      void 
  7999 ;; Registers used:
  8000 ;;		wreg, fsr1l, fsr1h, status,2, status,0, pclath, cstack
  8001 ;; Tracked objects:
  8002 ;;		On entry : 0/0
  8003 ;;		On exit  : 0/0
  8004 ;;		Unchanged: 0/0
  8005 ;; Data sizes:     COMMON   BANK0   BANK1   BANK2   BANK3   BANK4   BANK5   BANK6   BANK7   BANK8   BANK9  BANK10  BANK1
      +1  BANK12
  8006 ;;      Params:         0       0       0       0       0       0       0       0       0       0       0       0       
      +0       0
  8007 ;;      Locals:         0       3       0       0       0       0       0       0       0       0       0       0       
      +0       0
  8008 ;;      Temps:          2       0       0       0       0       0       0       0       0       0       0       0       
      +0       0
  8009 ;;      Totals:         2       3       0       0       0       0       0       0       0       0       0       0       
      +0       0
  8010 ;;Total ram usage:        5 bytes
  8011 ;; Hardware stack levels used: 1
  8012 ;; Hardware stack levels required when called: 2
  8013 ;; This function calls:
  8014 ;;		_sendBulk
  8015 ;; This function is called by:
  8016 ;;		_initRadio
  8017 ;; This function uses a non-reentrant model
  8018 ;;
  8019                           
  8020                           
  8021                           ;psect for function _setPreambleLength
  8022  1592                     _setPreambleLength:
  8023                           
  8024                           ;incstack = 0
  8025                           ; Regs used in _setPreambleLength: [wreg+fsr1l+fsr1h+status,2+status,0+pclath+cstack]
  8026                           ;setPreambleLength@radio stored from wreg
  8027  1592  0020               	movlb	0	; select bank0
  8028  1593  00A5               	movwf	setPreambleLength@radio
  8029  1594                     l2613:
  8030                           
  8031                           ;RFM69HCW.c: 111:     byte msg[] = {0x2d | 0x80, 0x03};
  8032  1594  0022               	movlb	2	; select bank2
  8033  1595  083B               	movf	(setPreambleLength@F9462+1)^(0+256),w
  8034  1596  0020               	movlb	0	; select bank0
  8035  1597  00A4               	movwf	setPreambleLength@msg+1
  8036  1598  0022               	movlb	2	; select bank2
  8037  1599  083A               	movf	setPreambleLength@F9462^(0+256),w
  8038  159A  0020               	movlb	0	; select bank0
  8039  159B  00A3               	movwf	setPreambleLength@msg
  8040  159C                     l2615:
  8041                           
  8042                           ;RFM69HCW.c: 112:     sendBulk(radio, msg, 2);
  8043  159C  3023               	movlw	(low (setPreambleLength@msg| 0))& (0+255)
  8044  159D  00FC               	movwf	??_setPreambleLength
  8045  159E  087C               	movf	??_setPreambleLength,w
  8046  159F  00F6               	movwf	sendBulk@msgs
  8047  15A0  3002               	movlw	2
  8048  15A1  00FD               	movwf	??_setPreambleLength+1
  8049  15A2  087D               	movf	??_setPreambleLength+1,w
  8050  15A3  00F7               	movwf	sendBulk@len
  8051  15A4  0825               	movf	setPreambleLength@radio,w
  8052  15A5  3188  2069  3195   	fcall	_sendBulk
  8053  15A8                     l230:
  8054  15A8  0008               	return
  8055  15A9                     __end_of_setPreambleLength:
  8056                           
  8057                           	psect	text19
  8058  165D                     __ptext19:	
  8059 ;; *************** function _setPacketLength *****************
  8060 ;; Defined at:
  8061 ;;		line 61 in file "RFM69HCW.c"
  8062 ;; Parameters:    Size  Location     Type
  8063 ;;  radio           1    wreg     PTR struct RFM69HCW
  8064 ;;		 -> main@radio(75), 
  8065 ;; Auto vars:     Size  Location     Type
  8066 ;;  radio           1    5[BANK0 ] PTR struct RFM69HCW
  8067 ;;		 -> main@radio(75), 
  8068 ;;  msg             2    3[BANK0 ] unsigned char [2]
  8069 ;; Return value:  Size  Location     Type
  8070 ;;                  1    wreg      void 
  8071 ;; Registers used:
  8072 ;;		wreg, fsr1l, fsr1h, status,2, status,0, pclath, cstack
  8073 ;; Tracked objects:
  8074 ;;		On entry : 0/0
  8075 ;;		On exit  : 0/0
  8076 ;;		Unchanged: 0/0
  8077 ;; Data sizes:     COMMON   BANK0   BANK1   BANK2   BANK3   BANK4   BANK5   BANK6   BANK7   BANK8   BANK9  BANK10  BANK1
      +1  BANK12
  8078 ;;      Params:         0       0       0       0       0       0       0       0       0       0       0       0       
      +0       0
  8079 ;;      Locals:         0       3       0       0       0       0       0       0       0       0       0       0       
      +0       0
  8080 ;;      Temps:          2       0       0       0       0       0       0       0       0       0       0       0       
      +0       0
  8081 ;;      Totals:         2       3       0       0       0       0       0       0       0       0       0       0       
      +0       0
  8082 ;;Total ram usage:        5 bytes
  8083 ;; Hardware stack levels used: 1
  8084 ;; Hardware stack levels required when called: 2
  8085 ;; This function calls:
  8086 ;;		_sendBulk
  8087 ;; This function is called by:
  8088 ;;		_initRadio
  8089 ;; This function uses a non-reentrant model
  8090 ;;
  8091                           
  8092                           
  8093                           ;psect for function _setPacketLength
  8094  165D                     _setPacketLength:
  8095                           
  8096                           ;incstack = 0
  8097                           ; Regs used in _setPacketLength: [wreg+fsr1l+fsr1h+status,2+status,0+pclath+cstack]
  8098                           ;setPacketLength@radio stored from wreg
  8099  165D  0020               	movlb	0	; select bank0
  8100  165E  00A5               	movwf	setPacketLength@radio
  8101  165F                     l2583:
  8102                           
  8103                           ;RFM69HCW.c: 62:     byte msg[] = {0x38 | 0x80, radio->packet_length};
  8104  165F  01A3               	clrf	setPacketLength@msg
  8105  1660  01A4               	clrf	setPacketLength@msg+1
  8106  1661                     l2585:
  8107  1661  30B8               	movlw	184
  8108  1662  00FC               	movwf	??_setPacketLength
  8109  1663  087C               	movf	??_setPacketLength,w
  8110  1664  00A3               	movwf	setPacketLength@msg
  8111  1665                     l2587:
  8112  1665  0825               	movf	setPacketLength@radio,w
  8113  1666  3E2B               	addlw	43
  8114  1667  0086               	movwf	6
  8115  1668  3001               	movlw	1	; select bank2/3
  8116  1669  0087               	movwf	7
  8117  166A  0801               	movf	1,w
  8118  166B  00FC               	movwf	??_setPacketLength
  8119  166C  087C               	movf	??_setPacketLength,w
  8120  166D  00A4               	movwf	setPacketLength@msg+1
  8121  166E                     l2589:
  8122                           
  8123                           ;RFM69HCW.c: 63:     sendBulk(radio, msg, 2);
  8124  166E  3023               	movlw	(low (setPacketLength@msg| 0))& (0+255)
  8125  166F  00FC               	movwf	??_setPacketLength
  8126  1670  087C               	movf	??_setPacketLength,w
  8127  1671  00F6               	movwf	sendBulk@msgs
  8128  1672  3002               	movlw	2
  8129  1673  00FD               	movwf	??_setPacketLength+1
  8130  1674  087D               	movf	??_setPacketLength+1,w
  8131  1675  00F7               	movwf	sendBulk@len
  8132  1676  0825               	movf	setPacketLength@radio,w
  8133  1677  3188  2069  3196   	fcall	_sendBulk
  8134  167A                     l186:
  8135  167A  0008               	return
  8136  167B                     __end_of_setPacketLength:
  8137                           
  8138                           	psect	text20
  8139  157B                     __ptext20:	
  8140 ;; *************** function _setPacketFormat *****************
  8141 ;; Defined at:
  8142 ;;		line 76 in file "RFM69HCW.c"
  8143 ;; Parameters:    Size  Location     Type
  8144 ;;  radio           1    wreg     PTR struct RFM69HCW
  8145 ;;		 -> main@radio(75), 
  8146 ;; Auto vars:     Size  Location     Type
  8147 ;;  radio           1    5[BANK0 ] PTR struct RFM69HCW
  8148 ;;		 -> main@radio(75), 
  8149 ;;  msg             2    3[BANK0 ] unsigned char [2]
  8150 ;; Return value:  Size  Location     Type
  8151 ;;                  1    wreg      void 
  8152 ;; Registers used:
  8153 ;;		wreg, fsr1l, fsr1h, status,2, status,0, pclath, cstack
  8154 ;; Tracked objects:
  8155 ;;		On entry : 0/0
  8156 ;;		On exit  : 0/0
  8157 ;;		Unchanged: 0/0
  8158 ;; Data sizes:     COMMON   BANK0   BANK1   BANK2   BANK3   BANK4   BANK5   BANK6   BANK7   BANK8   BANK9  BANK10  BANK1
      +1  BANK12
  8159 ;;      Params:         0       0       0       0       0       0       0       0       0       0       0       0       
      +0       0
  8160 ;;      Locals:         0       3       0       0       0       0       0       0       0       0       0       0       
      +0       0
  8161 ;;      Temps:          2       0       0       0       0       0       0       0       0       0       0       0       
      +0       0
  8162 ;;      Totals:         2       3       0       0       0       0       0       0       0       0       0       0       
      +0       0
  8163 ;;Total ram usage:        5 bytes
  8164 ;; Hardware stack levels used: 1
  8165 ;; Hardware stack levels required when called: 2
  8166 ;; This function calls:
  8167 ;;		_sendBulk
  8168 ;; This function is called by:
  8169 ;;		_initRadio
  8170 ;; This function uses a non-reentrant model
  8171 ;;
  8172                           
  8173                           
  8174                           ;psect for function _setPacketFormat
  8175  157B                     _setPacketFormat:
  8176                           
  8177                           ;incstack = 0
  8178                           ; Regs used in _setPacketFormat: [wreg+fsr1l+fsr1h+status,2+status,0+pclath+cstack]
  8179                           ;setPacketFormat@radio stored from wreg
  8180  157B  0020               	movlb	0	; select bank0
  8181  157C  00A5               	movwf	setPacketFormat@radio
  8182  157D                     l2607:
  8183                           
  8184                           ;RFM69HCW.c: 77:     byte msg[] = {0x37 | 0x80, 0b00010000};
  8185  157D  0022               	movlb	2	; select bank2
  8186  157E  083F               	movf	(setPacketFormat@F9440+1)^(0+256),w
  8187  157F  0020               	movlb	0	; select bank0
  8188  1580  00A4               	movwf	setPacketFormat@msg+1
  8189  1581  0022               	movlb	2	; select bank2
  8190  1582  083E               	movf	setPacketFormat@F9440^(0+256),w
  8191  1583  0020               	movlb	0	; select bank0
  8192  1584  00A3               	movwf	setPacketFormat@msg
  8193  1585                     l2609:
  8194                           
  8195                           ;RFM69HCW.c: 78:     sendBulk(radio, msg, 2);
  8196  1585  3023               	movlw	(low (setPacketFormat@msg| 0))& (0+255)
  8197  1586  00FC               	movwf	??_setPacketFormat
  8198  1587  087C               	movf	??_setPacketFormat,w
  8199  1588  00F6               	movwf	sendBulk@msgs
  8200  1589  3002               	movlw	2
  8201  158A  00FD               	movwf	??_setPacketFormat+1
  8202  158B  087D               	movf	??_setPacketFormat+1,w
  8203  158C  00F7               	movwf	sendBulk@len
  8204  158D  0825               	movf	setPacketFormat@radio,w
  8205  158E  3188  2069  3195   	fcall	_sendBulk
  8206  1591                     l201:
  8207  1591  0008               	return
  8208  1592                     __end_of_setPacketFormat:
  8209                           
  8210                           	psect	text21
  8211  163F                     __ptext21:	
  8212 ;; *************** function _setNodeAddress *****************
  8213 ;; Defined at:
  8214 ;;		line 66 in file "RFM69HCW.c"
  8215 ;; Parameters:    Size  Location     Type
  8216 ;;  radio           1    wreg     PTR struct RFM69HCW
  8217 ;;		 -> main@radio(75), 
  8218 ;; Auto vars:     Size  Location     Type
  8219 ;;  radio           1    5[BANK0 ] PTR struct RFM69HCW
  8220 ;;		 -> main@radio(75), 
  8221 ;;  msg             2    3[BANK0 ] unsigned char [2]
  8222 ;; Return value:  Size  Location     Type
  8223 ;;                  1    wreg      void 
  8224 ;; Registers used:
  8225 ;;		wreg, fsr1l, fsr1h, status,2, status,0, pclath, cstack
  8226 ;; Tracked objects:
  8227 ;;		On entry : 0/0
  8228 ;;		On exit  : 0/0
  8229 ;;		Unchanged: 0/0
  8230 ;; Data sizes:     COMMON   BANK0   BANK1   BANK2   BANK3   BANK4   BANK5   BANK6   BANK7   BANK8   BANK9  BANK10  BANK1
      +1  BANK12
  8231 ;;      Params:         0       0       0       0       0       0       0       0       0       0       0       0       
      +0       0
  8232 ;;      Locals:         0       3       0       0       0       0       0       0       0       0       0       0       
      +0       0
  8233 ;;      Temps:          2       0       0       0       0       0       0       0       0       0       0       0       
      +0       0
  8234 ;;      Totals:         2       3       0       0       0       0       0       0       0       0       0       0       
      +0       0
  8235 ;;Total ram usage:        5 bytes
  8236 ;; Hardware stack levels used: 1
  8237 ;; Hardware stack levels required when called: 2
  8238 ;; This function calls:
  8239 ;;		_sendBulk
  8240 ;; This function is called by:
  8241 ;;		_initRadio
  8242 ;; This function uses a non-reentrant model
  8243 ;;
  8244                           
  8245                           
  8246                           ;psect for function _setNodeAddress
  8247  163F                     _setNodeAddress:
  8248                           
  8249                           ;incstack = 0
  8250                           ; Regs used in _setNodeAddress: [wreg+fsr1l+fsr1h+status,2+status,0+pclath+cstack]
  8251                           ;setNodeAddress@radio stored from wreg
  8252  163F  0020               	movlb	0	; select bank0
  8253  1640  00A5               	movwf	setNodeAddress@radio
  8254  1641                     l2591:
  8255                           
  8256                           ;RFM69HCW.c: 67:     byte msg[] = {0x39 | 0x80, radio->node_address};
  8257  1641  01A3               	clrf	setNodeAddress@msg
  8258  1642  01A4               	clrf	setNodeAddress@msg+1
  8259  1643                     l2593:
  8260  1643  30B9               	movlw	185
  8261  1644  00FC               	movwf	??_setNodeAddress
  8262  1645  087C               	movf	??_setNodeAddress,w
  8263  1646  00A3               	movwf	setNodeAddress@msg
  8264  1647                     l2595:
  8265  1647  0825               	movf	setNodeAddress@radio,w
  8266  1648  3E40               	addlw	64
  8267  1649  0086               	movwf	6
  8268  164A  3001               	movlw	1	; select bank2/3
  8269  164B  0087               	movwf	7
  8270  164C  0801               	movf	1,w
  8271  164D  00FC               	movwf	??_setNodeAddress
  8272  164E  087C               	movf	??_setNodeAddress,w
  8273  164F  00A4               	movwf	setNodeAddress@msg+1
  8274  1650                     l2597:
  8275                           
  8276                           ;RFM69HCW.c: 68:     sendBulk(radio, msg, 2);
  8277  1650  3023               	movlw	(low (setNodeAddress@msg| 0))& (0+255)
  8278  1651  00FC               	movwf	??_setNodeAddress
  8279  1652  087C               	movf	??_setNodeAddress,w
  8280  1653  00F6               	movwf	sendBulk@msgs
  8281  1654  3002               	movlw	2
  8282  1655  00FD               	movwf	??_setNodeAddress+1
  8283  1656  087D               	movf	??_setNodeAddress+1,w
  8284  1657  00F7               	movwf	sendBulk@len
  8285  1658  0825               	movf	setNodeAddress@radio,w
  8286  1659  3188  2069  3196   	fcall	_sendBulk
  8287  165C                     l191:
  8288  165C  0008               	return
  8289  165D                     __end_of_setNodeAddress:
  8290                           
  8291                           	psect	text22
  8292  1699                     __ptext22:	
  8293 ;; *************** function _setModulationThreshold *****************
  8294 ;; Defined at:
  8295 ;;		line 90 in file "RFM69HCW.c"
  8296 ;; Parameters:    Size  Location     Type
  8297 ;;  radio           1    wreg     PTR struct RFM69HCW
  8298 ;;		 -> main@radio(75), 
  8299 ;; Auto vars:     Size  Location     Type
  8300 ;;  radio           1    5[BANK0 ] PTR struct RFM69HCW
  8301 ;;		 -> main@radio(75), 
  8302 ;;  msg             2    3[BANK0 ] unsigned char [2]
  8303 ;; Return value:  Size  Location     Type
  8304 ;;                  1    wreg      void 
  8305 ;; Registers used:
  8306 ;;		wreg, fsr1l, fsr1h, status,2, status,0, pclath, cstack
  8307 ;; Tracked objects:
  8308 ;;		On entry : 0/0
  8309 ;;		On exit  : 0/0
  8310 ;;		Unchanged: 0/0
  8311 ;; Data sizes:     COMMON   BANK0   BANK1   BANK2   BANK3   BANK4   BANK5   BANK6   BANK7   BANK8   BANK9  BANK10  BANK1
      +1  BANK12
  8312 ;;      Params:         0       0       0       0       0       0       0       0       0       0       0       0       
      +0       0
  8313 ;;      Locals:         0       3       0       0       0       0       0       0       0       0       0       0       
      +0       0
  8314 ;;      Temps:          2       0       0       0       0       0       0       0       0       0       0       0       
      +0       0
  8315 ;;      Totals:         2       3       0       0       0       0       0       0       0       0       0       0       
      +0       0
  8316 ;;Total ram usage:        5 bytes
  8317 ;; Hardware stack levels used: 1
  8318 ;; Hardware stack levels required when called: 2
  8319 ;; This function calls:
  8320 ;;		_sendBulk
  8321 ;; This function is called by:
  8322 ;;		_main
  8323 ;;		_initRadio
  8324 ;; This function uses a non-reentrant model
  8325 ;;
  8326                           
  8327                           
  8328                           ;psect for function _setModulationThreshold
  8329  1699                     _setModulationThreshold:
  8330                           
  8331                           ;incstack = 0
  8332                           ; Regs used in _setModulationThreshold: [wreg+fsr1l+fsr1h+status,2+status,0+pclath+cstac
      +                          k]
  8333                           ;setModulationThreshold@radio stored from wreg
  8334  1699  0020               	movlb	0	; select bank0
  8335  169A  00A5               	movwf	setModulationThreshold@radio
  8336  169B                     l2563:
  8337                           
  8338                           ;RFM69HCW.c: 91:     byte msg[] = {0x3C | 0x80, radio->packet_length -1};
  8339  169B  01A3               	clrf	setModulationThreshold@msg
  8340  169C  01A4               	clrf	setModulationThreshold@msg+1
  8341  169D                     l2565:
  8342  169D  30BC               	movlw	188
  8343  169E  00FC               	movwf	??_setModulationThreshold
  8344  169F  087C               	movf	??_setModulationThreshold,w
  8345  16A0  00A3               	movwf	setModulationThreshold@msg
  8346  16A1                     l2567:
  8347  16A1  0825               	movf	setModulationThreshold@radio,w
  8348  16A2  3E2B               	addlw	43
  8349  16A3  0086               	movwf	6
  8350  16A4  3001               	movlw	1	; select bank2/3
  8351  16A5  0087               	movwf	7
  8352  16A6  0801               	movf	1,w
  8353  16A7  3EFF               	addlw	255
  8354  16A8  00FC               	movwf	??_setModulationThreshold
  8355  16A9  087C               	movf	??_setModulationThreshold,w
  8356  16AA  00A4               	movwf	setModulationThreshold@msg+1
  8357  16AB                     l2569:
  8358                           
  8359                           ;RFM69HCW.c: 92:     sendBulk(radio, msg, 2);
  8360  16AB  3023               	movlw	(low (setModulationThreshold@msg| 0))& (0+255)
  8361  16AC  00FC               	movwf	??_setModulationThreshold
  8362  16AD  087C               	movf	??_setModulationThreshold,w
  8363  16AE  00F6               	movwf	sendBulk@msgs
  8364  16AF  3002               	movlw	2
  8365  16B0  00FD               	movwf	??_setModulationThreshold+1
  8366  16B1  087D               	movf	??_setModulationThreshold+1,w
  8367  16B2  00F7               	movwf	sendBulk@len
  8368  16B3  0825               	movf	setModulationThreshold@radio,w
  8369  16B4  3188  2069  3196   	fcall	_sendBulk
  8370  16B7                     l214:
  8371  16B7  0008               	return
  8372  16B8                     __end_of_setModulationThreshold:
  8373                           
  8374                           	psect	text23
  8375  1519                     __ptext23:	
  8376 ;; *************** function _init *****************
  8377 ;; Defined at:
  8378 ;;		line 91 in file "transmitter.c"
  8379 ;; Parameters:    Size  Location     Type
  8380 ;;		None
  8381 ;; Auto vars:     Size  Location     Type
  8382 ;;		None
  8383 ;; Return value:  Size  Location     Type
  8384 ;;                  2  107[None  ] int 
  8385 ;; Registers used:
  8386 ;;		wreg, status,2, status,0, pclath, cstack
  8387 ;; Tracked objects:
  8388 ;;		On entry : 0/0
  8389 ;;		On exit  : 0/0
  8390 ;;		Unchanged: 0/0
  8391 ;; Data sizes:     COMMON   BANK0   BANK1   BANK2   BANK3   BANK4   BANK5   BANK6   BANK7   BANK8   BANK9  BANK10  BANK1
      +1  BANK12
  8392 ;;      Params:         0       0       0       0       0       0       0       0       0       0       0       0       
      +0       0
  8393 ;;      Locals:         0       0       0       0       0       0       0       0       0       0       0       0       
      +0       0
  8394 ;;      Temps:          0       0       0       0       0       0       0       0       0       0       0       0       
      +0       0
  8395 ;;      Totals:         0       0       0       0       0       0       0       0       0       0       0       0       
      +0       0
  8396 ;;Total ram usage:        0 bytes
  8397 ;; Hardware stack levels used: 1
  8398 ;; Hardware stack levels required when called: 2
  8399 ;; This function calls:
  8400 ;;		_TRIS_ANS_Setup
  8401 ;;		_analogSetup
  8402 ;;		_rfmSetup
  8403 ;; This function is called by:
  8404 ;;		_main
  8405 ;; This function uses a non-reentrant model
  8406 ;;
  8407                           
  8408                           
  8409                           ;psect for function _init
  8410  1519                     _init:
  8411  1519                     l2617:	
  8412                           ;incstack = 0
  8413                           ; Regs used in _init: [wreg+status,2+status,0+pclath+cstack]
  8414                           
  8415                           
  8416                           ;transmitter.c: 92:     TRIS_ANS_Setup();
  8417  1519  3195  2523  3195   	fcall	_TRIS_ANS_Setup
  8418                           
  8419                           ;transmitter.c: 93:     analogSetup();
  8420  151C  3195  2508  3195   	fcall	_analogSetup
  8421  151F                     l2619:
  8422                           
  8423                           ;transmitter.c: 94:     rfmSetup();
  8424  151F  3195  2541  3195   	fcall	_rfmSetup
  8425  1522                     l108:
  8426  1522  0008               	return
  8427  1523                     __end_of_init:
  8428                           
  8429                           	psect	text24
  8430  1541                     __ptext24:	
  8431 ;; *************** function _rfmSetup *****************
  8432 ;; Defined at:
  8433 ;;		line 98 in file "transmitter.c"
  8434 ;; Parameters:    Size  Location     Type
  8435 ;;		None
  8436 ;; Auto vars:     Size  Location     Type
  8437 ;;		None
  8438 ;; Return value:  Size  Location     Type
  8439 ;;                  1    wreg      void 
  8440 ;; Registers used:
  8441 ;;		wreg, status,2, status,0, pclath, cstack
  8442 ;; Tracked objects:
  8443 ;;		On entry : 0/0
  8444 ;;		On exit  : 0/0
  8445 ;;		Unchanged: 0/0
  8446 ;; Data sizes:     COMMON   BANK0   BANK1   BANK2   BANK3   BANK4   BANK5   BANK6   BANK7   BANK8   BANK9  BANK10  BANK1
      +1  BANK12
  8447 ;;      Params:         0       0       0       0       0       0       0       0       0       0       0       0       
      +0       0
  8448 ;;      Locals:         0       0       0       0       0       0       0       0       0       0       0       0       
      +0       0
  8449 ;;      Temps:          1       0       0       0       0       0       0       0       0       0       0       0       
      +0       0
  8450 ;;      Totals:         1       0       0       0       0       0       0       0       0       0       0       0       
      +0       0
  8451 ;;Total ram usage:        1 bytes
  8452 ;; Hardware stack levels used: 1
  8453 ;; Hardware stack levels required when called: 1
  8454 ;; This function calls:
  8455 ;;		_resetRadio
  8456 ;;		_spi_init_master
  8457 ;; This function is called by:
  8458 ;;		_init
  8459 ;; This function uses a non-reentrant model
  8460 ;;
  8461                           
  8462                           
  8463                           ;psect for function _rfmSetup
  8464  1541                     _rfmSetup:
  8465  1541                     l2467:	
  8466                           ;incstack = 0
  8467                           ; Regs used in _rfmSetup: [wreg+status,2+status,0+pclath+cstack]
  8468                           
  8469                           
  8470                           ;transmitter.c: 99:     SSP1BUF;
  8471  1541  0024               	movlb	4	; select bank4
  8472  1542  0811               	movf	17,w	;volatile
  8473  1543                     l2469:
  8474                           
  8475                           ;transmitter.c: 100:     SSP1STATbits.BF = 0;
  8476  1543  1014               	bcf	20,0	;volatile
  8477  1544                     l2471:
  8478                           
  8479                           ;transmitter.c: 101:     spi_init_master();
  8480  1544  3195  2553  3195   	fcall	_spi_init_master
  8481  1547                     l2473:
  8482                           
  8483                           ;transmitter.c: 102:     resetRadio();
  8484  1547  3195  2566  3195   	fcall	_resetRadio
  8485                           
  8486                           ;transmitter.c: 103:     _delay((unsigned long)((20)*(16000000/4000.0)));
  8487  154A  3068               	movlw	104
  8488  154B  00F1               	movwf	??_rfmSetup
  8489  154C  30E4               	movlw	228
  8490  154D                     u2867:
  8491  154D  0B89               	decfsz	9,f
  8492  154E  2D4D               	goto	u2867
  8493  154F  0BF1               	decfsz	??_rfmSetup,f
  8494  1550  2D4D               	goto	u2867
  8495  1551  3200               	nop2
  8496  1552                     l111:
  8497  1552  0008               	return
  8498  1553                     __end_of_rfmSetup:
  8499                           
  8500                           	psect	text25
  8501  1553                     __ptext25:	
  8502 ;; *************** function _spi_init_master *****************
  8503 ;; Defined at:
  8504 ;;		line 151 in file "transmitter.c"
  8505 ;; Parameters:    Size  Location     Type
  8506 ;;		None
  8507 ;; Auto vars:     Size  Location     Type
  8508 ;;		None
  8509 ;; Return value:  Size  Location     Type
  8510 ;;                  1    wreg      void 
  8511 ;; Registers used:
  8512 ;;		wreg, status,2, status,0
  8513 ;; Tracked objects:
  8514 ;;		On entry : 0/0
  8515 ;;		On exit  : 0/0
  8516 ;;		Unchanged: 0/0
  8517 ;; Data sizes:     COMMON   BANK0   BANK1   BANK2   BANK3   BANK4   BANK5   BANK6   BANK7   BANK8   BANK9  BANK10  BANK1
      +1  BANK12
  8518 ;;      Params:         0       0       0       0       0       0       0       0       0       0       0       0       
      +0       0
  8519 ;;      Locals:         0       0       0       0       0       0       0       0       0       0       0       0       
      +0       0
  8520 ;;      Temps:          0       0       0       0       0       0       0       0       0       0       0       0       
      +0       0
  8521 ;;      Totals:         0       0       0       0       0       0       0       0       0       0       0       0       
      +0       0
  8522 ;;Total ram usage:        0 bytes
  8523 ;; Hardware stack levels used: 1
  8524 ;; This function calls:
  8525 ;;		Nothing
  8526 ;; This function is called by:
  8527 ;;		_rfmSetup
  8528 ;; This function uses a non-reentrant model
  8529 ;;
  8530                           
  8531                           
  8532                           ;psect for function _spi_init_master
  8533  1553                     _spi_init_master:
  8534  1553                     l2085:	
  8535                           ;incstack = 0
  8536                           ; Regs used in _spi_init_master: [wreg+status,2+status,0]
  8537                           
  8538                           
  8539                           ;transmitter.c: 152:     SSP1CON1bits.SSPM = 0b0001;
  8540  1553  0024               	movlb	4	; select bank4
  8541  1554  0815               	movf	21,w	;volatile
  8542  1555  39F0               	andlw	-16
  8543  1556  3801               	iorlw	1
  8544  1557  0095               	movwf	21	;volatile
  8545  1558                     l2087:
  8546                           
  8547                           ;transmitter.c: 153:     SSP1CONbits.SSPEN = 1;
  8548  1558  1695               	bsf	21,5	;volatile
  8549  1559                     l2089:
  8550                           
  8551                           ;transmitter.c: 154:     SSP1CONbits.CKP = 0;
  8552  1559  1215               	bcf	21,4	;volatile
  8553  155A                     l2091:
  8554                           
  8555                           ;transmitter.c: 155:     SSP1STATbits.CKE = 1;
  8556  155A  1714               	bsf	20,6	;volatile
  8557  155B                     l2093:
  8558                           
  8559                           ;transmitter.c: 156:     SSP1STATbits.SMP = 0;
  8560  155B  1394               	bcf	20,7	;volatile
  8561  155C                     l2095:
  8562                           
  8563                           ;transmitter.c: 158:     RC0PPS = 0b10000;
  8564  155C  3010               	movlw	16
  8565  155D  003D               	movlb	29	; select bank29
  8566  155E  00A0               	movwf	32	;volatile
  8567  155F                     l2097:
  8568                           
  8569                           ;transmitter.c: 160:     SSPDATPPS = 0b10001;
  8570  155F  3011               	movlw	17
  8571  1560  003C               	movlb	28	; select bank28
  8572  1561  00A1               	movwf	33	;volatile
  8573  1562                     l2099:
  8574                           
  8575                           ;transmitter.c: 162:     RC3PPS = 0b10001;
  8576  1562  3011               	movlw	17
  8577  1563  003D               	movlb	29	; select bank29
  8578  1564  00A3               	movwf	35	;volatile
  8579  1565                     l131:
  8580  1565  0008               	return
  8581  1566                     __end_of_spi_init_master:
  8582                           
  8583                           	psect	text26
  8584  1566                     __ptext26:	
  8585 ;; *************** function _resetRadio *****************
  8586 ;; Defined at:
  8587 ;;		line 84 in file "transmitter.c"
  8588 ;; Parameters:    Size  Location     Type
  8589 ;;		None
  8590 ;; Auto vars:     Size  Location     Type
  8591 ;;		None
  8592 ;; Return value:  Size  Location     Type
  8593 ;;                  1    wreg      void 
  8594 ;; Registers used:
  8595 ;;		wreg
  8596 ;; Tracked objects:
  8597 ;;		On entry : 0/0
  8598 ;;		On exit  : 0/0
  8599 ;;		Unchanged: 0/0
  8600 ;; Data sizes:     COMMON   BANK0   BANK1   BANK2   BANK3   BANK4   BANK5   BANK6   BANK7   BANK8   BANK9  BANK10  BANK1
      +1  BANK12
  8601 ;;      Params:         0       0       0       0       0       0       0       0       0       0       0       0       
      +0       0
  8602 ;;      Locals:         0       0       0       0       0       0       0       0       0       0       0       0       
      +0       0
  8603 ;;      Temps:          1       0       0       0       0       0       0       0       0       0       0       0       
      +0       0
  8604 ;;      Totals:         1       0       0       0       0       0       0       0       0       0       0       0       
      +0       0
  8605 ;;Total ram usage:        1 bytes
  8606 ;; Hardware stack levels used: 1
  8607 ;; This function calls:
  8608 ;;		Nothing
  8609 ;; This function is called by:
  8610 ;;		_rfmSetup
  8611 ;; This function uses a non-reentrant model
  8612 ;;
  8613                           
  8614                           
  8615                           ;psect for function _resetRadio
  8616  1566                     _resetRadio:
  8617  1566                     l2079:	
  8618                           ;incstack = 0
  8619                           ; Regs used in _resetRadio: [wreg]
  8620                           
  8621                           
  8622                           ;transmitter.c: 85:     PORTCbits.RC2 = 1;
  8623  1566  0020               	movlb	0	; select bank0
  8624  1567  150E               	bsf	14,2	;volatile
  8625  1568                     l2081:
  8626                           
  8627                           ;transmitter.c: 86:     _delay((unsigned long)((1)*(16000000/4000.0)));
  8628  1568  3006               	movlw	6
  8629  1569  00F0               	movwf	??_resetRadio
  8630  156A  3030               	movlw	48
  8631  156B                     u2877:
  8632  156B  0B89               	decfsz	9,f
  8633  156C  2D6B               	goto	u2877
  8634  156D  0BF0               	decfsz	??_resetRadio,f
  8635  156E  2D6B               	goto	u2877
  8636  156F  3200               	nop2
  8637  1570                     l2083:
  8638                           
  8639                           ;transmitter.c: 87:     PORTCbits.RC2 = 0;
  8640  1570  0020               	movlb	0	; select bank0
  8641  1571  110E               	bcf	14,2	;volatile
  8642                           
  8643                           ;transmitter.c: 88:     _delay((unsigned long)((20)*(16000000/4000.0)));
  8644  1572  3068               	movlw	104
  8645  1573  00F0               	movwf	??_resetRadio
  8646  1574  30E4               	movlw	228
  8647  1575                     u2887:
  8648  1575  0B89               	decfsz	9,f
  8649  1576  2D75               	goto	u2887
  8650  1577  0BF0               	decfsz	??_resetRadio,f
  8651  1578  2D75               	goto	u2887
  8652  1579  3200               	nop2
  8653  157A                     l105:
  8654  157A  0008               	return
  8655  157B                     __end_of_resetRadio:
  8656                           
  8657                           	psect	text27
  8658  1508                     __ptext27:	
  8659 ;; *************** function _analogSetup *****************
  8660 ;; Defined at:
  8661 ;;		line 78 in file "transmitter.c"
  8662 ;; Parameters:    Size  Location     Type
  8663 ;;		None
  8664 ;; Auto vars:     Size  Location     Type
  8665 ;;		None
  8666 ;; Return value:  Size  Location     Type
  8667 ;;                  1    wreg      void 
  8668 ;; Registers used:
  8669 ;;		None
  8670 ;; Tracked objects:
  8671 ;;		On entry : 0/0
  8672 ;;		On exit  : 0/0
  8673 ;;		Unchanged: 0/0
  8674 ;; Data sizes:     COMMON   BANK0   BANK1   BANK2   BANK3   BANK4   BANK5   BANK6   BANK7   BANK8   BANK9  BANK10  BANK1
      +1  BANK12
  8675 ;;      Params:         0       0       0       0       0       0       0       0       0       0       0       0       
      +0       0
  8676 ;;      Locals:         0       0       0       0       0       0       0       0       0       0       0       0       
      +0       0
  8677 ;;      Temps:          0       0       0       0       0       0       0       0       0       0       0       0       
      +0       0
  8678 ;;      Totals:         0       0       0       0       0       0       0       0       0       0       0       0       
      +0       0
  8679 ;;Total ram usage:        0 bytes
  8680 ;; Hardware stack levels used: 1
  8681 ;; This function calls:
  8682 ;;		Nothing
  8683 ;; This function is called by:
  8684 ;;		_init
  8685 ;; This function uses a non-reentrant model
  8686 ;;
  8687                           
  8688                           
  8689                           ;psect for function _analogSetup
  8690  1508                     _analogSetup:
  8691  1508                     l2465:	
  8692                           ;incstack = 0
  8693                           ; Regs used in _analogSetup: []
  8694                           
  8695                           
  8696                           ;transmitter.c: 80:     ADFM = 0;
  8697  1508  0021               	movlb	1	; select bank1
  8698  1509  139E               	bcf	30,7	;volatile
  8699                           
  8700                           ;transmitter.c: 81:     WPUA4 = 0;
  8701  150A  0024               	movlb	4	; select bank4
  8702  150B  120C               	bcf	12,4	;volatile
  8703  150C                     l102:
  8704  150C  0008               	return
  8705  150D                     __end_of_analogSetup:
  8706                           
  8707                           	psect	text28
  8708  1523                     __ptext28:	
  8709 ;; *************** function _TRIS_ANS_Setup *****************
  8710 ;; Defined at:
  8711 ;;		line 64 in file "transmitter.c"
  8712 ;; Parameters:    Size  Location     Type
  8713 ;;		None
  8714 ;; Auto vars:     Size  Location     Type
  8715 ;;		None
  8716 ;; Return value:  Size  Location     Type
  8717 ;;                  1    wreg      void 
  8718 ;; Registers used:
  8719 ;;		status,2
  8720 ;; Tracked objects:
  8721 ;;		On entry : 0/0
  8722 ;;		On exit  : 0/0
  8723 ;;		Unchanged: 0/0
  8724 ;; Data sizes:     COMMON   BANK0   BANK1   BANK2   BANK3   BANK4   BANK5   BANK6   BANK7   BANK8   BANK9  BANK10  BANK1
      +1  BANK12
  8725 ;;      Params:         0       0       0       0       0       0       0       0       0       0       0       0       
      +0       0
  8726 ;;      Locals:         0       0       0       0       0       0       0       0       0       0       0       0       
      +0       0
  8727 ;;      Temps:          0       0       0       0       0       0       0       0       0       0       0       0       
      +0       0
  8728 ;;      Totals:         0       0       0       0       0       0       0       0       0       0       0       0       
      +0       0
  8729 ;;Total ram usage:        0 bytes
  8730 ;; Hardware stack levels used: 1
  8731 ;; This function calls:
  8732 ;;		Nothing
  8733 ;; This function is called by:
  8734 ;;		_init
  8735 ;; This function uses a non-reentrant model
  8736 ;;
  8737                           
  8738                           
  8739                           ;psect for function _TRIS_ANS_Setup
  8740  1523                     _TRIS_ANS_Setup:
  8741  1523                     l2445:	
  8742                           ;incstack = 0
  8743                           ; Regs used in _TRIS_ANS_Setup: [status,2]
  8744                           
  8745                           
  8746                           ;transmitter.c: 65:     ANSELA = 0;
  8747  1523  0023               	movlb	3	; select bank3
  8748  1524  018C               	clrf	12	;volatile
  8749                           
  8750                           ;transmitter.c: 66:     ANSELC = 0;
  8751  1525  018E               	clrf	14	;volatile
  8752  1526                     l2447:
  8753                           
  8754                           ;transmitter.c: 67:     TRISC0 = 0;
  8755  1526  0021               	movlb	1	; select bank1
  8756  1527  100E               	bcf	14,0	;volatile
  8757  1528                     l2449:
  8758                           
  8759                           ;transmitter.c: 68:     TRISC1 = 1;
  8760  1528  148E               	bsf	14,1	;volatile
  8761  1529                     l2451:
  8762                           
  8763                           ;transmitter.c: 69:     TRISC2 = 0;
  8764  1529  110E               	bcf	14,2	;volatile
  8765  152A                     l2453:
  8766                           
  8767                           ;transmitter.c: 70:     TRISC3 = 0;
  8768  152A  118E               	bcf	14,3	;volatile
  8769  152B                     l2455:
  8770                           
  8771                           ;transmitter.c: 71:     TRISC5 = 0;
  8772  152B  128E               	bcf	14,5	;volatile
  8773  152C                     l2457:
  8774                           
  8775                           ;transmitter.c: 72:     TRISA5 = 1;
  8776  152C  168C               	bsf	12,5	;volatile
  8777  152D                     l2459:
  8778                           
  8779                           ;transmitter.c: 73:     TRISA2 = 0;
  8780  152D  110C               	bcf	12,2	;volatile
  8781  152E                     l2461:
  8782                           
  8783                           ;transmitter.c: 74:     TRISA4 = 1;
  8784  152E  160C               	bsf	12,4	;volatile
  8785  152F                     l2463:
  8786                           
  8787                           ;transmitter.c: 75:     ANSA4 = 1;
  8788  152F  0023               	movlb	3	; select bank3
  8789  1530  160C               	bsf	12,4	;volatile
  8790  1531                     l99:
  8791  1531  0008               	return
  8792  1532                     __end_of_TRIS_ANS_Setup:
  8793                           
  8794                           	psect	text29
  8795  15DB                     __ptext29:	
  8796 ;; *************** function _getOperatingMode *****************
  8797 ;; Defined at:
  8798 ;;		line 158 in file "RFM69HCW.c"
  8799 ;; Parameters:    Size  Location     Type
  8800 ;;  radio           1    wreg     PTR struct RFM69HCW
  8801 ;;		 -> main@radio(75), 
  8802 ;; Auto vars:     Size  Location     Type
  8803 ;;  radio           1    3[BANK0 ] PTR struct RFM69HCW
  8804 ;;		 -> main@radio(75), 
  8805 ;;  msg             2    4[BANK0 ] unsigned char [2]
  8806 ;; Return value:  Size  Location     Type
  8807 ;;                  1    wreg      unsigned char 
  8808 ;; Registers used:
  8809 ;;		wreg, fsr1l, fsr1h, status,2, status,0, pclath, cstack
  8810 ;; Tracked objects:
  8811 ;;		On entry : 0/0
  8812 ;;		On exit  : 0/0
  8813 ;;		Unchanged: 0/0
  8814 ;; Data sizes:     COMMON   BANK0   BANK1   BANK2   BANK3   BANK4   BANK5   BANK6   BANK7   BANK8   BANK9  BANK10  BANK1
      +1  BANK12
  8815 ;;      Params:         0       0       0       0       0       0       0       0       0       0       0       0       
      +0       0
  8816 ;;      Locals:         0       3       0       0       0       0       0       0       0       0       0       0       
      +0       0
  8817 ;;      Temps:          2       0       0       0       0       0       0       0       0       0       0       0       
      +0       0
  8818 ;;      Totals:         2       3       0       0       0       0       0       0       0       0       0       0       
      +0       0
  8819 ;;Total ram usage:        5 bytes
  8820 ;; Hardware stack levels used: 1
  8821 ;; Hardware stack levels required when called: 2
  8822 ;; This function calls:
  8823 ;;		_sendBulk
  8824 ;; This function is called by:
  8825 ;;		_main
  8826 ;; This function uses a non-reentrant model
  8827 ;;
  8828                           
  8829                           
  8830                           ;psect for function _getOperatingMode
  8831  15DB                     _getOperatingMode:
  8832                           
  8833                           ;incstack = 0
  8834                           ; Regs used in _getOperatingMode: [wreg+fsr1l+fsr1h+status,2+status,0+pclath+cstack]
  8835                           ;getOperatingMode@radio stored from wreg
  8836  15DB  0020               	movlb	0	; select bank0
  8837  15DC  00A3               	movwf	getOperatingMode@radio
  8838  15DD                     l2693:
  8839                           
  8840                           ;RFM69HCW.c: 159:     byte msg[] = {0x01, 0x0};
  8841  15DD  0022               	movlb	2	; select bank2
  8842  15DE  0833               	movf	(getOperatingMode@F9489+1)^(0+256),w
  8843  15DF  0020               	movlb	0	; select bank0
  8844  15E0  00A5               	movwf	getOperatingMode@msg+1
  8845  15E1  0022               	movlb	2	; select bank2
  8846  15E2  0832               	movf	getOperatingMode@F9489^(0+256),w
  8847  15E3  0020               	movlb	0	; select bank0
  8848  15E4  00A4               	movwf	getOperatingMode@msg
  8849  15E5                     l2695:
  8850                           
  8851                           ;RFM69HCW.c: 160:     sendBulk(radio, msg, 2);
  8852  15E5  3024               	movlw	(low (getOperatingMode@msg| 0))& (0+255)
  8853  15E6  00FC               	movwf	??_getOperatingMode
  8854  15E7  087C               	movf	??_getOperatingMode,w
  8855  15E8  00F6               	movwf	sendBulk@msgs
  8856  15E9  3002               	movlw	2
  8857  15EA  00FD               	movwf	??_getOperatingMode+1
  8858  15EB  087D               	movf	??_getOperatingMode+1,w
  8859  15EC  00F7               	movwf	sendBulk@len
  8860  15ED  0823               	movf	getOperatingMode@radio,w
  8861  15EE  3188  2069  3195   	fcall	_sendBulk
  8862  15F1                     l2697:
  8863                           
  8864                           ;RFM69HCW.c: 161:     return msg[1];
  8865  15F1  0020               	movlb	0	; select bank0
  8866  15F2  0825               	movf	getOperatingMode@msg+1,w
  8867  15F3                     l264:
  8868  15F3  0008               	return
  8869  15F4                     __end_of_getOperatingMode:
  8870                           
  8871                           	psect	text30
  8872  15C2                     __ptext30:	
  8873 ;; *************** function _getModeFlags *****************
  8874 ;; Defined at:
  8875 ;;		line 170 in file "RFM69HCW.c"
  8876 ;; Parameters:    Size  Location     Type
  8877 ;;  radio           1    wreg     PTR struct RFM69HCW
  8878 ;;		 -> main@radio(75), 
  8879 ;; Auto vars:     Size  Location     Type
  8880 ;;  radio           1    5[BANK0 ] PTR struct RFM69HCW
  8881 ;;		 -> main@radio(75), 
  8882 ;;  msg             2    3[BANK0 ] unsigned char [2]
  8883 ;; Return value:  Size  Location     Type
  8884 ;;                  1    wreg      unsigned char 
  8885 ;; Registers used:
  8886 ;;		wreg, fsr1l, fsr1h, status,2, status,0, pclath, cstack
  8887 ;; Tracked objects:
  8888 ;;		On entry : 0/0
  8889 ;;		On exit  : 0/0
  8890 ;;		Unchanged: 0/0
  8891 ;; Data sizes:     COMMON   BANK0   BANK1   BANK2   BANK3   BANK4   BANK5   BANK6   BANK7   BANK8   BANK9  BANK10  BANK1
      +1  BANK12
  8892 ;;      Params:         0       0       0       0       0       0       0       0       0       0       0       0       
      +0       0
  8893 ;;      Locals:         0       3       0       0       0       0       0       0       0       0       0       0       
      +0       0
  8894 ;;      Temps:          2       0       0       0       0       0       0       0       0       0       0       0       
      +0       0
  8895 ;;      Totals:         2       3       0       0       0       0       0       0       0       0       0       0       
      +0       0
  8896 ;;Total ram usage:        5 bytes
  8897 ;; Hardware stack levels used: 1
  8898 ;; Hardware stack levels required when called: 2
  8899 ;; This function calls:
  8900 ;;		_sendBulk
  8901 ;; This function is called by:
  8902 ;;		_main
  8903 ;; This function uses a non-reentrant model
  8904 ;;
  8905                           
  8906                           
  8907                           ;psect for function _getModeFlags
  8908  15C2                     _getModeFlags:
  8909                           
  8910                           ;incstack = 0
  8911                           ; Regs used in _getModeFlags: [wreg+fsr1l+fsr1h+status,2+status,0+pclath+cstack]
  8912                           ;getModeFlags@radio stored from wreg
  8913  15C2  0020               	movlb	0	; select bank0
  8914  15C3  00A5               	movwf	getModeFlags@radio
  8915  15C4                     l2673:
  8916                           
  8917                           ;RFM69HCW.c: 171:     byte msg[] = {0x27, 0x0};
  8918  15C4  0022               	movlb	2	; select bank2
  8919  15C5  0831               	movf	(getModeFlags@F9498+1)^(0+256),w
  8920  15C6  0020               	movlb	0	; select bank0
  8921  15C7  00A4               	movwf	getModeFlags@msg+1
  8922  15C8  0022               	movlb	2	; select bank2
  8923  15C9  0830               	movf	getModeFlags@F9498^(0+256),w
  8924  15CA  0020               	movlb	0	; select bank0
  8925  15CB  00A3               	movwf	getModeFlags@msg
  8926  15CC                     l2675:
  8927                           
  8928                           ;RFM69HCW.c: 172:     sendBulk(radio, msg, 2);
  8929  15CC  3023               	movlw	(low (getModeFlags@msg| 0))& (0+255)
  8930  15CD  00FC               	movwf	??_getModeFlags
  8931  15CE  087C               	movf	??_getModeFlags,w
  8932  15CF  00F6               	movwf	sendBulk@msgs
  8933  15D0  3002               	movlw	2
  8934  15D1  00FD               	movwf	??_getModeFlags+1
  8935  15D2  087D               	movf	??_getModeFlags+1,w
  8936  15D3  00F7               	movwf	sendBulk@len
  8937  15D4  0825               	movf	getModeFlags@radio,w
  8938  15D5  3188  2069  3195   	fcall	_sendBulk
  8939  15D8                     l2677:
  8940                           
  8941                           ;RFM69HCW.c: 173:     return msg[1];
  8942  15D8  0020               	movlb	0	; select bank0
  8943  15D9  0824               	movf	getModeFlags@msg+1,w
  8944  15DA                     l274:
  8945  15DA  0008               	return
  8946  15DB                     __end_of_getModeFlags:
  8947                           
  8948                           	psect	text31
  8949  15A9                     __ptext31:	
  8950 ;; *************** function _getFifoFlags *****************
  8951 ;; Defined at:
  8952 ;;		line 146 in file "RFM69HCW.c"
  8953 ;; Parameters:    Size  Location     Type
  8954 ;;  radio           1    wreg     PTR struct RFM69HCW
  8955 ;;		 -> main@radio(75), 
  8956 ;; Auto vars:     Size  Location     Type
  8957 ;;  radio           1    5[BANK0 ] PTR struct RFM69HCW
  8958 ;;		 -> main@radio(75), 
  8959 ;;  msg             2    3[BANK0 ] unsigned char [2]
  8960 ;; Return value:  Size  Location     Type
  8961 ;;                  1    wreg      unsigned char 
  8962 ;; Registers used:
  8963 ;;		wreg, fsr1l, fsr1h, status,2, status,0, pclath, cstack
  8964 ;; Tracked objects:
  8965 ;;		On entry : 0/0
  8966 ;;		On exit  : 0/0
  8967 ;;		Unchanged: 0/0
  8968 ;; Data sizes:     COMMON   BANK0   BANK1   BANK2   BANK3   BANK4   BANK5   BANK6   BANK7   BANK8   BANK9  BANK10  BANK1
      +1  BANK12
  8969 ;;      Params:         0       0       0       0       0       0       0       0       0       0       0       0       
      +0       0
  8970 ;;      Locals:         0       3       0       0       0       0       0       0       0       0       0       0       
      +0       0
  8971 ;;      Temps:          2       0       0       0       0       0       0       0       0       0       0       0       
      +0       0
  8972 ;;      Totals:         2       3       0       0       0       0       0       0       0       0       0       0       
      +0       0
  8973 ;;Total ram usage:        5 bytes
  8974 ;; Hardware stack levels used: 1
  8975 ;; Hardware stack levels required when called: 2
  8976 ;; This function calls:
  8977 ;;		_sendBulk
  8978 ;; This function is called by:
  8979 ;;		_main
  8980 ;; This function uses a non-reentrant model
  8981 ;;
  8982                           
  8983                           
  8984                           ;psect for function _getFifoFlags
  8985  15A9                     _getFifoFlags:
  8986                           
  8987                           ;incstack = 0
  8988                           ; Regs used in _getFifoFlags: [wreg+fsr1l+fsr1h+status,2+status,0+pclath+cstack]
  8989                           ;getFifoFlags@radio stored from wreg
  8990  15A9  0020               	movlb	0	; select bank0
  8991  15AA  00A5               	movwf	getFifoFlags@radio
  8992  15AB                     l2665:
  8993                           
  8994                           ;RFM69HCW.c: 147:     byte msg[] = {0x28, 0x0};
  8995  15AB  0022               	movlb	2	; select bank2
  8996  15AC  0837               	movf	(getFifoFlags@F9481+1)^(0+256),w
  8997  15AD  0020               	movlb	0	; select bank0
  8998  15AE  00A4               	movwf	getFifoFlags@msg+1
  8999  15AF  0022               	movlb	2	; select bank2
  9000  15B0  0836               	movf	getFifoFlags@F9481^(0+256),w
  9001  15B1  0020               	movlb	0	; select bank0
  9002  15B2  00A3               	movwf	getFifoFlags@msg
  9003  15B3                     l2667:
  9004                           
  9005                           ;RFM69HCW.c: 148:     sendBulk(radio, msg, 2);
  9006  15B3  3023               	movlw	(low (getFifoFlags@msg| 0))& (0+255)
  9007  15B4  00FC               	movwf	??_getFifoFlags
  9008  15B5  087C               	movf	??_getFifoFlags,w
  9009  15B6  00F6               	movwf	sendBulk@msgs
  9010  15B7  3002               	movlw	2
  9011  15B8  00FD               	movwf	??_getFifoFlags+1
  9012  15B9  087D               	movf	??_getFifoFlags+1,w
  9013  15BA  00F7               	movwf	sendBulk@len
  9014  15BB  0825               	movf	getFifoFlags@radio,w
  9015  15BC  3188  2069  3195   	fcall	_sendBulk
  9016  15BF                     l2669:
  9017                           
  9018                           ;RFM69HCW.c: 149:     return msg[1];
  9019  15BF  0020               	movlb	0	; select bank0
  9020  15C0  0824               	movf	getFifoFlags@msg+1,w
  9021  15C1                     l254:
  9022  15C1  0008               	return
  9023  15C2                     __end_of_getFifoFlags:
  9024                           
  9025                           	psect	text32
  9026  0869                     __ptext32:	
  9027 ;; *************** function _sendBulk *****************
  9028 ;; Defined at:
  9029 ;;		line 14 in file "RFM69HCW.c"
  9030 ;; Parameters:    Size  Location     Type
  9031 ;;  radio           1    wreg     PTR struct RFM69HCW
  9032 ;;		 -> main@radio(75), 
  9033 ;;  msgs            1    6[COMMON] PTR unsigned char 
  9034 ;;		 -> setAutoMode@msg(2), getPowerSettings@msg(2), restartRx@msg(2), startRSSISampling@msg(2), 
  9035 ;;		 -> checkRSSISampling@msg(2), getModeFlags@msg(2), setDiodeMapping@msg(2), getOperatingMode@msg(2), 
  9036 ;;		 -> getRSSIThreshold@msg(2), getFifoFlags@msg(2), getRSSI@msg(2), setPowerOutput@msg(2), 
  9037 ;;		 -> setPreambleLength@msg(2), checkForPayload@flags(2), setModulationThreshold@msg(2), setOperatingMode@msg(2), 
  9038 ;;		 -> setPacketFormat@msg(2), setRSSIThreshold@msg(2), setNodeAddress@msg(2), setPacketLength@msg(2), 
  9039 ;;		 -> setSyncWords@msg(10), sendPairs@msg(2), 
  9040 ;;  len             1    7[COMMON] const unsigned char 
  9041 ;; Auto vars:     Size  Location     Type
  9042 ;;  radio           1    2[BANK0 ] PTR struct RFM69HCW
  9043 ;;		 -> main@radio(75), 
  9044 ;;  i               2    0[BANK0 ] int 
  9045 ;; Return value:  Size  Location     Type
  9046 ;;                  1    wreg      void 
  9047 ;; Registers used:
  9048 ;;		wreg, fsr1l, fsr1h, status,2, status,0, pclath, cstack
  9049 ;; Tracked objects:
  9050 ;;		On entry : 0/0
  9051 ;;		On exit  : 0/0
  9052 ;;		Unchanged: 0/0
  9053 ;; Data sizes:     COMMON   BANK0   BANK1   BANK2   BANK3   BANK4   BANK5   BANK6   BANK7   BANK8   BANK9  BANK10  BANK1
      +1  BANK12
  9054 ;;      Params:         2       0       0       0       0       0       0       0       0       0       0       0       
      +0       0
  9055 ;;      Locals:         0       3       0       0       0       0       0       0       0       0       0       0       
      +0       0
  9056 ;;      Temps:          4       0       0       0       0       0       0       0       0       0       0       0       
      +0       0
  9057 ;;      Totals:         6       3       0       0       0       0       0       0       0       0       0       0       
      +0       0
  9058 ;;Total ram usage:        9 bytes
  9059 ;; Hardware stack levels used: 1
  9060 ;; Hardware stack levels required when called: 1
  9061 ;; This function calls:
  9062 ;;		_send
  9063 ;;		_setPinWithMask
  9064 ;; This function is called by:
  9065 ;;		_sendPairs
  9066 ;;		_setSyncWords
  9067 ;;		_setPacketLength
  9068 ;;		_setNodeAddress
  9069 ;;		_setRSSIThreshold
  9070 ;;		_setPacketFormat
  9071 ;;		_setOperatingMode
  9072 ;;		_setModulationThreshold
  9073 ;;		_setPreambleLength
  9074 ;;		_setPowerOutput
  9075 ;;		_getFifoFlags
  9076 ;;		_getOperatingMode
  9077 ;;		_getModeFlags
  9078 ;;		_setAutoMode
  9079 ;;		_checkForPayload
  9080 ;;		_getRSSI
  9081 ;;		_getRSSIThreshold
  9082 ;;		_setDiodeMapping
  9083 ;;		_checkRSSISampling
  9084 ;;		_startRSSISampling
  9085 ;;		_restartRx
  9086 ;;		_getPowerSettings
  9087 ;; This function uses a non-reentrant model
  9088 ;;
  9089                           
  9090                           
  9091                           ;psect for function _sendBulk
  9092  0869                     _sendBulk:
  9093                           
  9094                           ;incstack = 0
  9095                           ; Regs used in _sendBulk: [wreg+fsr1l+fsr1h+status,2+status,0+pclath+cstack]
  9096                           ;sendBulk@radio stored from wreg
  9097  0869  0020               	movlb	0	; select bank0
  9098  086A  00A2               	movwf	sendBulk@radio
  9099  086B                     l1855:
  9100                           
  9101                           ;RFM69HCW.c: 15:     setPinWithMask(radio->SSport, radio->SSbit, 0);
  9102  086B  0822               	movf	sendBulk@radio,w
  9103  086C  3E28               	addlw	40
  9104  086D  0086               	movwf	6
  9105  086E  3001               	movlw	1	; select bank2/3
  9106  086F  0087               	movwf	7
  9107  0870  3F40               	moviw [0]fsr1
  9108  0871  00F0               	movwf	setPinWithMask@pPort
  9109  0872  3F41               	moviw [1]fsr1
  9110  0873  00F1               	movwf	setPinWithMask@pPort+1
  9111  0874  0822               	movf	sendBulk@radio,w
  9112  0875  3E2A               	addlw	42
  9113  0876  0086               	movwf	6
  9114  0877  3001               	movlw	1	; select bank2/3
  9115  0878  0087               	movwf	7
  9116  0879  0801               	movf	1,w
  9117  087A  00F8               	movwf	??_sendBulk
  9118  087B  0878               	movf	??_sendBulk,w
  9119  087C  00F2               	movwf	setPinWithMask@iPin
  9120  087D  01F3               	clrf	setPinWithMask@value
  9121  087E  3197  271B  3188   	fcall	_setPinWithMask
  9122  0881                     l1857:
  9123                           
  9124                           ;RFM69HCW.c: 16:     for (int i = 0; i < len; i++) {
  9125  0881  0020               	movlb	0	; select bank0
  9126  0882  01A0               	clrf	sendBulk@i
  9127  0883  01A1               	clrf	sendBulk@i+1
  9128  0884                     l1859:
  9129  0884  0877               	movf	sendBulk@len,w
  9130  0885  1D03               	btfss	3,2
  9131  0886  2888               	goto	u1501
  9132  0887  2889               	goto	u1500
  9133  0888                     u1501:
  9134  0888  288A               	goto	l1863
  9135  0889                     u1500:
  9136  0889  28B4               	goto	l1869
  9137  088A                     l1863:
  9138                           
  9139                           ;RFM69HCW.c: 17:         msgs[i] = send(radio, msgs[i]);
  9140  088A  0020               	movlb	0	; select bank0
  9141  088B  0820               	movf	sendBulk@i,w
  9142  088C  0776               	addwf	sendBulk@msgs,w
  9143  088D  00F8               	movwf	??_sendBulk
  9144  088E  0878               	movf	??_sendBulk,w
  9145  088F  0086               	movwf	6
  9146  0890  0187               	clrf	7
  9147  0891  0801               	movf	1,w
  9148  0892  00F9               	movwf	??_sendBulk+1
  9149  0893  0879               	movf	??_sendBulk+1,w
  9150  0894  00F0               	movwf	send@msg
  9151  0895  0822               	movf	sendBulk@radio,w
  9152  0896  3188  20CD  3188   	fcall	_send
  9153  0899  00FA               	movwf	??_sendBulk+2
  9154  089A  0020               	movlb	0	; select bank0
  9155  089B  0820               	movf	sendBulk@i,w
  9156  089C  0776               	addwf	sendBulk@msgs,w
  9157  089D  00FB               	movwf	??_sendBulk+3
  9158  089E  087B               	movf	??_sendBulk+3,w
  9159  089F  0086               	movwf	6
  9160  08A0  0187               	clrf	7
  9161  08A1  087A               	movf	??_sendBulk+2,w
  9162  08A2  0081               	movwf	1
  9163  08A3                     l1865:
  9164                           
  9165                           ;RFM69HCW.c: 18:     }
  9166  08A3  3001               	movlw	1
  9167  08A4  07A0               	addwf	sendBulk@i,f
  9168  08A5  3000               	movlw	0
  9169  08A6  3DA1               	addwfc	sendBulk@i+1,f
  9170  08A7                     l1867:
  9171  08A7  0821               	movf	sendBulk@i+1,w
  9172  08A8  3A80               	xorlw	128
  9173  08A9  00F8               	movwf	??_sendBulk
  9174  08AA  3080               	movlw	128
  9175  08AB  0278               	subwf	??_sendBulk,w
  9176  08AC  1D03               	skipz
  9177  08AD  28B0               	goto	u1515
  9178  08AE  0877               	movf	sendBulk@len,w
  9179  08AF  0220               	subwf	sendBulk@i,w
  9180  08B0                     u1515:
  9181  08B0  1C03               	skipc
  9182  08B1  28B3               	goto	u1511
  9183  08B2  28B4               	goto	u1510
  9184  08B3                     u1511:
  9185  08B3  288A               	goto	l1863
  9186  08B4                     u1510:
  9187  08B4                     l1869:
  9188                           
  9189                           ;RFM69HCW.c: 19:     setPinWithMask(radio->SSport, radio->SSbit, 1);
  9190  08B4  0020               	movlb	0	; select bank0
  9191  08B5  0822               	movf	sendBulk@radio,w
  9192  08B6  3E28               	addlw	40
  9193  08B7  0086               	movwf	6
  9194  08B8  3001               	movlw	1	; select bank2/3
  9195  08B9  0087               	movwf	7
  9196  08BA  3F40               	moviw [0]fsr1
  9197  08BB  00F0               	movwf	setPinWithMask@pPort
  9198  08BC  3F41               	moviw [1]fsr1
  9199  08BD  00F1               	movwf	setPinWithMask@pPort+1
  9200  08BE  0822               	movf	sendBulk@radio,w
  9201  08BF  3E2A               	addlw	42
  9202  08C0  0086               	movwf	6
  9203  08C1  3001               	movlw	1	; select bank2/3
  9204  08C2  0087               	movwf	7
  9205  08C3  0801               	movf	1,w
  9206  08C4  00F8               	movwf	??_sendBulk
  9207  08C5  0878               	movf	??_sendBulk,w
  9208  08C6  00F2               	movwf	setPinWithMask@iPin
  9209  08C7  01F3               	clrf	setPinWithMask@value
  9210  08C8  0AF3               	incf	setPinWithMask@value,f
  9211  08C9  3197  271B  3188   	fcall	_setPinWithMask
  9212  08CC                     l159:
  9213  08CC  0008               	return
  9214  08CD                     __end_of_sendBulk:
  9215                           
  9216                           	psect	text33
  9217  171B                     __ptext33:	
  9218 ;; *************** function _setPinWithMask *****************
  9219 ;; Defined at:
  9220 ;;		line 43 in file "RFM69HCW.c"
  9221 ;; Parameters:    Size  Location     Type
  9222 ;;  pPort           2    0[COMMON] PTR unsigned char 
  9223 ;;		 -> PORTA(1), 
  9224 ;;  iPin            1    2[COMMON] unsigned char 
  9225 ;;  value           1    3[COMMON] unsigned char 
  9226 ;; Auto vars:     Size  Location     Type
  9227 ;;		None
  9228 ;; Return value:  Size  Location     Type
  9229 ;;                  1    wreg      void 
  9230 ;; Registers used:
  9231 ;;		wreg, fsr1l, fsr1h, status,2, status,0
  9232 ;; Tracked objects:
  9233 ;;		On entry : 0/0
  9234 ;;		On exit  : 0/0
  9235 ;;		Unchanged: 0/0
  9236 ;; Data sizes:     COMMON   BANK0   BANK1   BANK2   BANK3   BANK4   BANK5   BANK6   BANK7   BANK8   BANK9  BANK10  BANK1
      +1  BANK12
  9237 ;;      Params:         4       0       0       0       0       0       0       0       0       0       0       0       
      +0       0
  9238 ;;      Locals:         0       0       0       0       0       0       0       0       0       0       0       0       
      +0       0
  9239 ;;      Temps:          2       0       0       0       0       0       0       0       0       0       0       0       
      +0       0
  9240 ;;      Totals:         6       0       0       0       0       0       0       0       0       0       0       0       
      +0       0
  9241 ;;Total ram usage:        6 bytes
  9242 ;; Hardware stack levels used: 1
  9243 ;; This function calls:
  9244 ;;		Nothing
  9245 ;; This function is called by:
  9246 ;;		_sendBulk
  9247 ;;		_sendPayload
  9248 ;;		_receivePayload
  9249 ;; This function uses a non-reentrant model
  9250 ;;
  9251                           
  9252                           
  9253                           ;psect for function _setPinWithMask
  9254  171B                     _setPinWithMask:
  9255  171B                     l1827:	
  9256                           ;incstack = 0
  9257                           ; Regs used in _setPinWithMask: [wreg+fsr1l+fsr1h+status,2+status,0]
  9258                           
  9259                           
  9260                           ;RFM69HCW.c: 44:     if (value == 0) {
  9261  171B  0873               	movf	setPinWithMask@value,w
  9262  171C  1D03               	btfss	3,2
  9263  171D  2F1F               	goto	u1431
  9264  171E  2F20               	goto	u1430
  9265  171F                     u1431:
  9266  171F  2F31               	goto	l1831
  9267  1720                     u1430:
  9268  1720                     l1829:
  9269                           
  9270                           ;RFM69HCW.c: 45:         *pPort &= ~(1 << iPin);
  9271  1720  3001               	movlw	1
  9272  1721  00F4               	movwf	??_setPinWithMask
  9273  1722  0A72               	incf	setPinWithMask@iPin,w
  9274  1723  2F25               	goto	u1444
  9275  1724                     u1445:
  9276  1724  35F4               	lslf	??_setPinWithMask,f
  9277  1725                     u1444:
  9278  1725  0B89               	decfsz	9,f
  9279  1726  2F24               	goto	u1445
  9280  1727  0874               	movf	??_setPinWithMask,w
  9281  1728  3AFF               	xorlw	255
  9282  1729  00F5               	movwf	??_setPinWithMask+1
  9283  172A  0870               	movf	setPinWithMask@pPort,w
  9284  172B  0086               	movwf	6
  9285  172C  0871               	movf	setPinWithMask@pPort+1,w
  9286  172D  0087               	movwf	7
  9287  172E  0875               	movf	??_setPinWithMask+1,w
  9288  172F  0581               	andwf	1,f
  9289                           
  9290                           ;RFM69HCW.c: 46:     } else {
  9291  1730  2F40               	goto	l176
  9292  1731                     l1831:
  9293                           
  9294                           ;RFM69HCW.c: 47:         *pPort |= 1 << iPin;
  9295  1731  3001               	movlw	1
  9296  1732  00F4               	movwf	??_setPinWithMask
  9297  1733  0A72               	incf	setPinWithMask@iPin,w
  9298  1734  2F36               	goto	u1454
  9299  1735                     u1455:
  9300  1735  35F4               	lslf	??_setPinWithMask,f
  9301  1736                     u1454:
  9302  1736  0B89               	decfsz	9,f
  9303  1737  2F35               	goto	u1455
  9304  1738  0874               	movf	??_setPinWithMask,w
  9305  1739  00F5               	movwf	??_setPinWithMask+1
  9306  173A  0870               	movf	setPinWithMask@pPort,w
  9307  173B  0086               	movwf	6
  9308  173C  0871               	movf	setPinWithMask@pPort+1,w
  9309  173D  0087               	movwf	7
  9310  173E  0875               	movf	??_setPinWithMask+1,w
  9311  173F  0481               	iorwf	1,f
  9312  1740                     l176:
  9313  1740  0008               	return
  9314  1741                     __end_of_setPinWithMask:
  9315                           
  9316                           	psect	text34
  9317  08CD                     __ptext34:	
  9318 ;; *************** function _send *****************
  9319 ;; Defined at:
  9320 ;;		line 22 in file "RFM69HCW.c"
  9321 ;; Parameters:    Size  Location     Type
  9322 ;;  radio           1    wreg     PTR struct RFM69HCW
  9323 ;;		 -> main@radio(75), 
  9324 ;;  msg             1    0[COMMON] unsigned char 
  9325 ;; Auto vars:     Size  Location     Type
  9326 ;;  radio           1    4[COMMON] PTR struct RFM69HCW
  9327 ;;		 -> main@radio(75), 
  9328 ;;  temp            1    3[COMMON] unsigned char 
  9329 ;; Return value:  Size  Location     Type
  9330 ;;                  1    wreg      unsigned char 
  9331 ;; Registers used:
  9332 ;;		wreg, fsr1l, fsr1h, status,2, status,0
  9333 ;; Tracked objects:
  9334 ;;		On entry : 0/0
  9335 ;;		On exit  : 0/0
  9336 ;;		Unchanged: 0/0
  9337 ;; Data sizes:     COMMON   BANK0   BANK1   BANK2   BANK3   BANK4   BANK5   BANK6   BANK7   BANK8   BANK9  BANK10  BANK1
      +1  BANK12
  9338 ;;      Params:         1       0       0       0       0       0       0       0       0       0       0       0       
      +0       0
  9339 ;;      Locals:         2       0       0       0       0       0       0       0       0       0       0       0       
      +0       0
  9340 ;;      Temps:          2       0       0       0       0       0       0       0       0       0       0       0       
      +0       0
  9341 ;;      Totals:         5       0       0       0       0       0       0       0       0       0       0       0       
      +0       0
  9342 ;;Total ram usage:        5 bytes
  9343 ;; Hardware stack levels used: 1
  9344 ;; This function calls:
  9345 ;;		Nothing
  9346 ;; This function is called by:
  9347 ;;		_sendBulk
  9348 ;;		_sendPayload
  9349 ;;		_receivePayload
  9350 ;; This function uses a non-reentrant model
  9351 ;;
  9352                           
  9353                           
  9354                           ;psect for function _send
  9355  08CD                     _send:
  9356                           
  9357                           ;incstack = 0
  9358                           ; Regs used in _send: [wreg+fsr1l+fsr1h+status,2+status,0]
  9359                           ;send@radio stored from wreg
  9360  08CD  00F4               	movwf	send@radio
  9361  08CE                     l1833:
  9362                           
  9363                           ;RFM69HCW.c: 23:     SSP1BUF = msg;
  9364  08CE  0870               	movf	send@msg,w
  9365  08CF  0024               	movlb	4	; select bank4
  9366  08D0  0091               	movwf	17	;volatile
  9367                           
  9368                           ;RFM69HCW.c: 24:     while (SSP1CONbits.WCOL) {
  9369  08D1  28D4               	goto	l1837
  9370  08D2                     l163:
  9371                           
  9372                           ;RFM69HCW.c: 25:         SSP1CONbits.WCOL = 0;
  9373  08D2  1395               	bcf	21,7	;volatile
  9374  08D3  28CE               	goto	l1833
  9375  08D4                     l1837:
  9376                           
  9377                           ;RFM69HCW.c: 24:     while (SSP1CONbits.WCOL) {
  9378  08D4  1B95               	btfsc	21,7	;volatile
  9379  08D5  28D7               	goto	u1461
  9380  08D6  28D8               	goto	u1460
  9381  08D7                     u1461:
  9382  08D7  28D2               	goto	l163
  9383  08D8                     u1460:
  9384  08D8                     l165:
  9385  08D8  1C14               	btfss	20,0	;volatile
  9386  08D9  28DB               	goto	u1471
  9387  08DA  28DC               	goto	u1470
  9388  08DB                     u1471:
  9389  08DB  28D8               	goto	l165
  9390  08DC                     u1470:
  9391  08DC                     l1839:
  9392                           
  9393                           ;RFM69HCW.c: 29:     radio->sendIndex++;
  9394  08DC  3001               	movlw	1
  9395  08DD  00F1               	movwf	??_send
  9396  08DE  0874               	movf	send@radio,w
  9397  08DF  3E4A               	addlw	74
  9398  08E0  0086               	movwf	6
  9399  08E1  3001               	movlw	1	; select bank2/3
  9400  08E2  0087               	movwf	7
  9401  08E3  0871               	movf	??_send,w
  9402  08E4  0781               	addwf	1,f
  9403                           
  9404                           ;RFM69HCW.c: 30:     if (radio->sendIndex == 20) {
  9405  08E5  0874               	movf	send@radio,w
  9406  08E6  3E4A               	addlw	74
  9407  08E7  0086               	movwf	6
  9408  08E8  3001               	movlw	1	; select bank2/3
  9409  08E9  0087               	movwf	7
  9410  08EA  3014               	movlw	20
  9411  08EB  0601               	xorwf	1,w
  9412  08EC  1D03               	btfss	3,2
  9413  08ED  28EF               	goto	u1481
  9414  08EE  28F0               	goto	u1480
  9415  08EF                     u1481:
  9416  08EF  28F6               	goto	l1843
  9417  08F0                     u1480:
  9418  08F0                     l1841:
  9419                           
  9420                           ;RFM69HCW.c: 31:         radio->sendIndex = 0;
  9421  08F0  0874               	movf	send@radio,w
  9422  08F1  3E4A               	addlw	74
  9423  08F2  0086               	movwf	6
  9424  08F3  3001               	movlw	1	; select bank2/3
  9425  08F4  0087               	movwf	7
  9426  08F5  0181               	clrf	1
  9427  08F6                     l1843:
  9428                           
  9429                           ;RFM69HCW.c: 33:     byte temp = SSP1BUF;
  9430  08F6  0811               	movf	17,w	;volatile
  9431  08F7  00F1               	movwf	??_send
  9432  08F8  0871               	movf	??_send,w
  9433  08F9  00F3               	movwf	send@temp
  9434  08FA                     l1845:
  9435                           
  9436                           ;RFM69HCW.c: 34:     if (radio->sendIndex == 0) {
  9437  08FA  0874               	movf	send@radio,w
  9438  08FB  3E4A               	addlw	74
  9439  08FC  0086               	movwf	6
  9440  08FD  3001               	movlw	1	; select bank2/3
  9441  08FE  0087               	movwf	7
  9442  08FF  0801               	movf	1,w
  9443  0900  1D03               	btfss	3,2
  9444  0901  2903               	goto	u1491
  9445  0902  2904               	goto	u1490
  9446  0903                     u1491:
  9447  0903  290E               	goto	l1849
  9448  0904                     u1490:
  9449  0904                     l1847:
  9450                           
  9451                           ;RFM69HCW.c: 35:         radio->received[20 - 1] = temp;
  9452  0904  0873               	movf	send@temp,w
  9453  0905  00F1               	movwf	??_send
  9454  0906  0874               	movf	send@radio,w
  9455  0907  3E13               	addlw	19
  9456  0908  0086               	movwf	6
  9457  0909  3001               	movlw	1	; select bank2/3
  9458  090A  0087               	movwf	7
  9459  090B  0871               	movf	??_send,w
  9460  090C  0081               	movwf	1
  9461                           
  9462                           ;RFM69HCW.c: 36:     } else {
  9463  090D  291F               	goto	l170
  9464  090E                     l1849:
  9465                           
  9466                           ;RFM69HCW.c: 37:         radio->received[radio->sendIndex - 1] = temp;
  9467  090E  0873               	movf	send@temp,w
  9468  090F  00F1               	movwf	??_send
  9469  0910  0874               	movf	send@radio,w
  9470  0911  3E4A               	addlw	74
  9471  0912  0086               	movwf	6
  9472  0913  3001               	movlw	1	; select bank2/3
  9473  0914  0087               	movwf	7
  9474  0915  0801               	movf	1,w
  9475  0916  0774               	addwf	send@radio,w
  9476  0917  00F2               	movwf	??_send+1
  9477  0918  0872               	movf	??_send+1,w
  9478  0919  3EFF               	addlw	255
  9479  091A  0086               	movwf	6
  9480  091B  3001               	movlw	1	; select bank2/3
  9481  091C  0087               	movwf	7
  9482  091D  0871               	movf	??_send,w
  9483  091E  0081               	movwf	1
  9484  091F                     l170:	
  9485                           ;RFM69HCW.c: 38:     }
  9486                           
  9487                           
  9488                           ;RFM69HCW.c: 39:     radio->sent[radio->sendIndex] = msg;
  9489  091F  0870               	movf	send@msg,w
  9490  0920  00F1               	movwf	??_send
  9491  0921  0874               	movf	send@radio,w
  9492  0922  3E4A               	addlw	74
  9493  0923  0086               	movwf	6
  9494  0924  3001               	movlw	1	; select bank2/3
  9495  0925  0087               	movwf	7
  9496  0926  0801               	movf	1,w
  9497  0927  0774               	addwf	send@radio,w
  9498  0928  00F2               	movwf	??_send+1
  9499  0929  0872               	movf	??_send+1,w
  9500  092A  3E14               	addlw	20
  9501  092B  0086               	movwf	6
  9502  092C  3001               	movlw	1	; select bank2/3
  9503  092D  0087               	movwf	7
  9504  092E  0871               	movf	??_send,w
  9505  092F  0081               	movwf	1
  9506  0930                     l1851:
  9507                           
  9508                           ;RFM69HCW.c: 40:     return temp;
  9509  0930  0873               	movf	send@temp,w
  9510  0931                     l171:
  9511  0931  0008               	return
  9512  0932                     __end_of_send:
  9513  007E                     btemp	set	126	;btemp
  9514  007E                     wtemp0	set	126
  9515                           
  9516                           	psect	config
  9517                           
  9518                           ;Config register CONFIG1 @ 0x8007
  9519                           ;	Oscillator Selection Bits
  9520                           ;	FOSC = INTOSC, INTOSC oscillator: I/O function on CLKIN pin
  9521                           ;	Power-up Timer Enable
  9522                           ;	PWRTE = OFF, PWRT disabled
  9523                           ;	MCLR Pin Function Select
  9524                           ;	MCLRE = ON, MCLR/VPP pin function is MCLR
  9525                           ;	Flash Program Memory Code Protection
  9526                           ;	CP = OFF, Program memory code protection is disabled
  9527                           ;	Brown-out Reset Enable
  9528                           ;	BOREN = ON, Brown-out Reset enabled
  9529                           ;	Clock Out Enable
  9530                           ;	CLKOUTEN = OFF, CLKOUT function is disabled. I/O or oscillator function on the CLKOUT 
      +                          pin
  9531                           ;	Internal/External Switch Over
  9532                           ;	IESO = ON, Internal External Switch Over mode is enabled
  9533                           ;	Fail-Safe Clock Monitor Enable
  9534                           ;	FCMEN = ON, Fail-Safe Clock Monitor is enabled
  9535  8007                     	org	32775
  9536  8007  3FFC               	dw	16380
  9537                           
  9538                           ;Config register CONFIG2 @ 0x8008
  9539                           ;	Flash Memory Self-Write Protection
  9540                           ;	WRT = OFF, Write protection off
  9541                           ;	Peripheral Pin Select one-way control
  9542                           ;	PPS1WAY = ON, The PPSLOCK bit cannot be cleared once it is set by software
  9543                           ;	Zero Cross Detect Disable Bit
  9544                           ;	ZCD = OFF, ZCD disable.  ZCD can be enabled by setting the ZCDSEN bit of ZCDCON
  9545                           ;	PLL Enable Bit
  9546                           ;	PLLEN = OFF, 4x PLL is enabled when software sets the SPLLEN bit
  9547                           ;	Stack Overflow/Underflow Reset Enable
  9548                           ;	STVREN = ON, Stack Overflow or Underflow will cause a Reset
  9549                           ;	Brown-out Reset Voltage Selection
  9550                           ;	BORV = LO, Brown-out Reset Voltage (Vbor), low trip point selected.
  9551                           ;	Low-Power Brown Out Reset
  9552                           ;	LPBOR = OFF, Low-Power BOR is disabled
  9553                           ;	Low-Voltage Programming Enable
  9554                           ;	LVP = OFF, High-voltage on MCLR/VPP must be used for programming
  9555  8008                     	org	32776
  9556  8008  1EFF               	dw	7935
  9557                           
  9558                           ;Config register CONFIG3 @ 0x8009
  9559                           ;	WDT Period Select
  9560                           ;	WDTCPS = WDTCPS1F, Software Control (WDTPS)
  9561                           ;	Watchdog Timer Enable
  9562                           ;	WDTE = OFF, WDT disabled
  9563                           ;	WDT Window Select
  9564                           ;	WDTCWS = WDTCWSSW, Software WDT window size control (WDTWS bits)
  9565                           ;	WDT Input Clock Selector
  9566                           ;	WDTCCS = SWC, Software control, controlled by WDTCS bits
  9567  8009                     	org	32777
  9568  8009  3F9F               	dw	16287

Data Sizes:
    Strings     0
    Constant    24
    Data        117
    BSS         34
    Persistent  32
    Stack       0

Auto Spaces:
    Space          Size  Autos    Used
    COMMON           14     14      14
    BANK0            80     80      80
    BANK1            80     78      80
    BANK2            80     16      77
    BANK3            80     76      79
    BANK4            80      0      10
    BANK5            80      0      75
    BANK6            80      0       0
    BANK7            80      0       0
    BANK8            80      0       0
    BANK9            80      0       0
    BANK10           80      0       0
    BANK11           80      0       0
    BANK12           48      0       0

Pointer List with Targets:

    getPowerSettings@radio.SSport	PTR unsigned char  size(2) Largest target is 1
		 -> PORTA(SFR0[1]), 

    restartRx@radio.SSport	PTR unsigned char  size(2) Largest target is 1
		 -> PORTA(SFR0[1]), 

    startRSSISampling@radio.SSport	PTR unsigned char  size(2) Largest target is 1
		 -> PORTA(SFR0[1]), 

    checkRSSISampling@radio.SSport	PTR unsigned char  size(2) Largest target is 1
		 -> PORTA(SFR0[1]), 

    setDiodeMapping@radio.SSport	PTR unsigned char  size(2) Largest target is 1
		 -> PORTA(SFR0[1]), 

    getRSSIThreshold@radio.SSport	PTR unsigned char  size(2) Largest target is 1
		 -> PORTA(SFR0[1]), 

    getRSSI@radio.SSport	PTR unsigned char  size(2) Largest target is 1
		 -> PORTA(SFR0[1]), 

    checkForPayload@radio.SSport	PTR unsigned char  size(2) Largest target is 1
		 -> PORTA(SFR0[1]), 

    getOperatingMode@radio.SSport	PTR unsigned char  size(2) Largest target is 1
		 -> PORTA(SFR0[1]), 

    getModeFlags@radio.SSport	PTR unsigned char  size(2) Largest target is 1
		 -> PORTA(SFR0[1]), 

    getFifoFlags@radio.SSport	PTR unsigned char  size(2) Largest target is 1
		 -> PORTA(SFR0[1]), 

    setAutoMode@radio.SSport	PTR unsigned char  size(2) Largest target is 1
		 -> PORTA(SFR0[1]), 

    setOperatingMode@radio.SSport	PTR unsigned char  size(2) Largest target is 1
		 -> PORTA(SFR0[1]), 

    setPowerOutput@radio.SSport	PTR unsigned char  size(2) Largest target is 1
		 -> PORTA(SFR0[1]), 

    initRadio@radio.SSport	PTR unsigned char  size(2) Largest target is 1
		 -> PORTA(SFR0[1]), 

    setPreambleLength@radio.SSport	PTR unsigned char  size(2) Largest target is 1
		 -> PORTA(SFR0[1]), 

    setRecommendedParams@radio.SSport	PTR unsigned char  size(2) Largest target is 1
		 -> PORTA(SFR0[1]), 

    setPacketFormat@radio.SSport	PTR unsigned char  size(2) Largest target is 1
		 -> PORTA(SFR0[1]), 

    sendPairs@radio.SSport	PTR unsigned char  size(2) Largest target is 1
		 -> PORTA(SFR0[1]), 

    setAutoMode@radio	PTR struct RFM69HCW size(1) Largest target is 75
		 -> main@radio(BANK3[75]), 

    getModeFlags@radio	PTR struct RFM69HCW size(1) Largest target is 75
		 -> main@radio(BANK3[75]), 

    getOperatingMode@radio	PTR struct RFM69HCW size(1) Largest target is 75
		 -> main@radio(BANK3[75]), 

    getFifoFlags@radio	PTR struct RFM69HCW size(1) Largest target is 75
		 -> main@radio(BANK3[75]), 

    sendPayload@payload	PTR unsigned char  size(1) Largest target is 4
		 -> thermistorTemp(BANK2[4]), 

    sendPayload@radio.SSport	PTR unsigned char  size(2) Largest target is 1
		 -> PORTA(SFR0[1]), 

    sendPayload@radio	PTR struct RFM69HCW size(1) Largest target is 75
		 -> main@radio(BANK3[75]), 

    setPowerOutput@radio	PTR struct RFM69HCW size(1) Largest target is 75
		 -> main@radio(BANK3[75]), 

    initRadio@radio	PTR struct RFM69HCW size(1) Largest target is 75
		 -> main@radio(BANK3[75]), 

    setPreambleLength@radio	PTR struct RFM69HCW size(1) Largest target is 75
		 -> main@radio(BANK3[75]), 

    receivePayload@radio.SSport	PTR unsigned char  size(2) Largest target is 1
		 -> PORTA(SFR0[1]), 

    setModulationThreshold@radio.SSport	PTR unsigned char  size(2) Largest target is 1
		 -> PORTA(SFR0[1]), 

    setModulationThreshold@radio	PTR struct RFM69HCW size(1) Largest target is 75
		 -> main@radio(BANK3[75]), 

    setRecommendedParams@radio	PTR struct RFM69HCW size(1) Largest target is 75
		 -> main@radio(BANK3[75]), 

    setOperatingMode@radio	PTR struct RFM69HCW size(1) Largest target is 75
		 -> main@radio(BANK3[75]), 

    setPacketFormat@radio	PTR struct RFM69HCW size(1) Largest target is 75
		 -> main@radio(BANK3[75]), 

    setRSSIThreshold@radio.SSport	PTR unsigned char  size(2) Largest target is 1
		 -> PORTA(SFR0[1]), 

    setRSSIThreshold@radio	PTR struct RFM69HCW size(1) Largest target is 75
		 -> main@radio(BANK3[75]), 

    setNodeAddress@radio.SSport	PTR unsigned char  size(2) Largest target is 1
		 -> PORTA(SFR0[1]), 

    setNodeAddress@radio	PTR struct RFM69HCW size(1) Largest target is 75
		 -> main@radio(BANK3[75]), 

    setPacketLength@radio.SSport	PTR unsigned char  size(2) Largest target is 1
		 -> PORTA(SFR0[1]), 

    setPacketLength@radio	PTR struct RFM69HCW size(1) Largest target is 75
		 -> main@radio(BANK3[75]), 

    setSyncWords@radio.SSport	PTR unsigned char  size(2) Largest target is 1
		 -> PORTA(SFR0[1]), 

    setSyncWords@radio	PTR struct RFM69HCW size(1) Largest target is 75
		 -> main@radio(BANK3[75]), 

    setPinWithMask@pPort	PTR unsigned char  size(2) Largest target is 1
		 -> PORTA(SFR0[1]), 

    send@radio.SSport	PTR unsigned char  size(2) Largest target is 1
		 -> PORTA(SFR0[1]), 

    send@radio	PTR struct RFM69HCW size(1) Largest target is 75
		 -> main@radio(BANK3[75]), 

    sendBulk@msgs	PTR unsigned char  size(1) Largest target is 10
		 -> setAutoMode@msg(BANK0[2]), getPowerSettings@msg(COMMON[2]), restartRx@msg(COMMON[2]), startRSSISampling@msg(COMMON[2]), 
		 -> checkRSSISampling@msg(COMMON[2]), getModeFlags@msg(BANK0[2]), setDiodeMapping@msg(COMMON[2]), getOperatingMode@msg(BANK0[2]), 
		 -> getRSSIThreshold@msg(COMMON[2]), getFifoFlags@msg(BANK0[2]), getRSSI@msg(COMMON[2]), setPowerOutput@msg(BANK0[2]), 
		 -> setPreambleLength@msg(BANK0[2]), checkForPayload@flags(COMMON[2]), setModulationThreshold@msg(BANK0[2]), setOperatingMode@msg(BANK0[2]), 
		 -> setPacketFormat@msg(BANK0[2]), setRSSIThreshold@msg(BANK0[2]), setNodeAddress@msg(BANK0[2]), setPacketLength@msg(BANK0[2]), 
		 -> setSyncWords@msg(BANK0[10]), sendPairs@msg(BANK0[2]), 

    sendBulk@radio.SSport	PTR unsigned char  size(2) Largest target is 1
		 -> PORTA(SFR0[1]), 

    sendBulk@radio	PTR struct RFM69HCW size(1) Largest target is 75
		 -> main@radio(BANK3[75]), 

    sendPairs@radio	PTR struct RFM69HCW size(1) Largest target is 75
		 -> main@radio(BANK3[75]), 

    sendPairs@msgs	PTR unsigned char  size(1) Largest target is 10
		 -> recommended_params(BANK4[10]), 

    main@payload	PTR unsigned char  size(1) Largest target is 4
		 -> thermistorTemp(BANK2[4]), 

    radio.SSport	PTR unsigned char  size(2) Largest target is 1
		 -> PORTA(SFR0[1]), 

    S131RFM69HCW$SSport	PTR unsigned char  size(2) Largest target is 1
		 -> PORTA(SFR0[1]), 

    F9844.SSport	PTR unsigned char  size(2) Largest target is 1
		 -> PORTA(SFR0[1]), 


Critical Paths under _main in COMMON

    _main->_getFifoFlags
    _main->_getModeFlags
    _main->_getOperatingMode
    _main->_setModulationThreshold
    _thermistor_temp->___xxtofl
    _logf->___flmul
    _logf->___xxtofl
    ___flsub->___flmul
    ___fladd->___flmul
    ___fladd->___xxtofl
    ___flmul->__Umul8_16
    ___fldiv->___flmul
    ___fldiv->___xxtofl
    _setPowerOutput->_sendBulk
    _setOperatingMode->_sendBulk
    _setAutoMode->_sendBulk
    _sendPayload->_setPinWithMask
    _initRadio->_setModulationThreshold
    _initRadio->_setNodeAddress
    _initRadio->_setPacketFormat
    _initRadio->_setPacketLength
    _initRadio->_setPreambleLength
    _initRadio->_setRSSIThreshold
    _initRadio->_setSyncWords
    _setSyncWords->_sendBulk
    _setRecommendedParams->_sendPairs
    _sendPairs->_sendBulk
    _setRSSIThreshold->_sendBulk
    _setPreambleLength->_sendBulk
    _setPacketLength->_sendBulk
    _setPacketFormat->_sendBulk
    _setNodeAddress->_sendBulk
    _setModulationThreshold->_sendBulk
    _init->_rfmSetup
    _rfmSetup->_resetRadio
    _getOperatingMode->_sendBulk
    _getModeFlags->_sendBulk
    _getFifoFlags->_sendBulk
    _sendBulk->_setPinWithMask

Critical Paths under _main in BANK0

    _thermistor_temp->_logf
    _logf->___flsub
    ___flsub->___fladd
    ___fladd->___fldiv
    ___fldiv->___flmul
    _setPowerOutput->_sendBulk
    _setOperatingMode->_sendBulk
    _setAutoMode->_sendBulk
    _initRadio->_setSyncWords
    _setSyncWords->_sendBulk
    _setRecommendedParams->_sendPairs
    _sendPairs->_sendBulk
    _setRSSIThreshold->_sendBulk
    _setPreambleLength->_sendBulk
    _setPacketLength->_sendBulk
    _setPacketFormat->_sendBulk
    _setNodeAddress->_sendBulk
    _setModulationThreshold->_sendBulk
    _getOperatingMode->_sendBulk
    _getModeFlags->_sendBulk
    _getFifoFlags->_sendBulk

Critical Paths under _main in BANK1

    _main->_thermistor_temp
    _thermistor_temp->_logf

Critical Paths under _main in BANK2

    _main->_thermistor_temp

Critical Paths under _main in BANK3

    None.

Critical Paths under _main in BANK4

    None.

Critical Paths under _main in BANK5

    None.

Critical Paths under _main in BANK6

    None.

Critical Paths under _main in BANK7

    None.

Critical Paths under _main in BANK8

    None.

Critical Paths under _main in BANK9

    None.

Critical Paths under _main in BANK10

    None.

Critical Paths under _main in BANK11

    None.

Critical Paths under _main in BANK12

    None.

Call Graph Tables:

 ---------------------------------------------------------------------------------
 (Depth) Function   	        Calls       Base Space   Used Autos Params    Refs
 ---------------------------------------------------------------------------------
 (0) _main                                                77    77      0  133969
                                             79 BANK0      1     1      0
                                              0 BANK3     76    76      0
                       _getFifoFlags
                       _getModeFlags
                   _getOperatingMode
                               _init
                          _initRadio
                        _sendPayload
                        _setAutoMode
             _setModulationThreshold
                   _setOperatingMode
                     _setPowerOutput
                    _thermistor_temp
 ---------------------------------------------------------------------------------
 (1) _thermistor_temp                                     20    16      4   27486
                                             74 BANK1      4     0      4
                                              0 BANK2     16    16      0
                            ___fladd
                            ___fldiv
                            ___flsub
                           ___xxtofl
                               _logf
 ---------------------------------------------------------------------------------
 (2) _logf                                                78    74      4   16374
                                             75 BANK0      4     0      4
                                              0 BANK1     74    74      0
                            ___fladd
                            ___fldiv
                            ___flmul
                            ___flsub
                           ___xxtofl
 ---------------------------------------------------------------------------------
 (3) ___xxtofl                                            14    10      4     474
                                              0 COMMON    14    10      4
 ---------------------------------------------------------------------------------
 (3) ___flsub                                              8     0      8    4309
                                             67 BANK0      8     0      8
                            ___fladd
                            ___fldiv (ARG)
                            ___flmul (ARG)
 ---------------------------------------------------------------------------------
 (4) ___fladd                                             20    12      8    3808
                                             47 BANK0     20    12      8
                            ___fldiv (ARG)
                            ___flmul (ARG)
                           ___xxtofl (ARG)
 ---------------------------------------------------------------------------------
 (3) ___flmul                                             26    18      8    4241
                                              9 COMMON     5     5      0
                                              0 BANK0     21    13      8
                          __Umul8_16
 ---------------------------------------------------------------------------------
 (4) __Umul8_16                                            9     7      2     799
                                              0 COMMON     9     7      2
 ---------------------------------------------------------------------------------
 (3) ___fldiv                                             26    18      8    2337
                                             21 BANK0     26    18      8
                            ___flmul (ARG)
                           ___xxtofl (ARG)
 ---------------------------------------------------------------------------------
 (1) _setPowerOutput                                       6     5      1    6916
                                             12 COMMON     1     0      1
                                              3 BANK0      5     5      0
                           _sendBulk
 ---------------------------------------------------------------------------------
 (1) _setOperatingMode                                     6     5      1    6916
                                             12 COMMON     1     0      1
                                              3 BANK0      5     5      0
                           _sendBulk
 ---------------------------------------------------------------------------------
 (1) _setAutoMode                                          6     5      1    6916
                                             12 COMMON     1     0      1
                                              3 BANK0      5     5      0
                           _sendBulk
 ---------------------------------------------------------------------------------
 (1) _sendPayload                                          6     5      1    2685
                                              6 COMMON     6     5      1
                               _send
                     _setPinWithMask
 ---------------------------------------------------------------------------------
 (1) _initRadio                                            1     1      0   55344
                                             16 BANK0      1     1      0
             _setModulationThreshold
                     _setNodeAddress
                    _setPacketFormat
                    _setPacketLength
                  _setPreambleLength
                   _setRSSIThreshold
               _setRecommendedParams
                       _setSyncWords
 ---------------------------------------------------------------------------------
 (2) _setSyncWords                                        15    15      0    6953
                                             12 COMMON     2     2      0
                                              3 BANK0     13    13      0
                           _sendBulk
 ---------------------------------------------------------------------------------
 (2) _setRecommendedParams                                 2     2      0    7203
                                             11 BANK0      2     2      0
                          _sendPairs
 ---------------------------------------------------------------------------------
 (3) _sendPairs                                           10     7      3    7148
                                             12 COMMON     2     2      0
                                              3 BANK0      8     5      3
                           _sendBulk
 ---------------------------------------------------------------------------------
 (2) _setRSSIThreshold                                     5     5      0    6840
                                             12 COMMON     2     2      0
                                              3 BANK0      3     3      0
                           _sendBulk
 ---------------------------------------------------------------------------------
 (2) _setPreambleLength                                    5     5      0    6793
                                             12 COMMON     2     2      0
                                              3 BANK0      3     3      0
                           _sendBulk
 ---------------------------------------------------------------------------------
 (2) _setPacketLength                                      5     5      0    6840
                                             12 COMMON     2     2      0
                                              3 BANK0      3     3      0
                           _sendBulk
 ---------------------------------------------------------------------------------
 (2) _setPacketFormat                                      5     5      0    6793
                                             12 COMMON     2     2      0
                                              3 BANK0      3     3      0
                           _sendBulk
 ---------------------------------------------------------------------------------
 (2) _setNodeAddress                                       5     5      0    6840
                                             12 COMMON     2     2      0
                                              3 BANK0      3     3      0
                           _sendBulk
 ---------------------------------------------------------------------------------
 (1) _setModulationThreshold                               5     5      0    6873
                                             12 COMMON     2     2      0
                                              3 BANK0      3     3      0
                           _sendBulk
 ---------------------------------------------------------------------------------
 (1) _init                                                 0     0      0       0
                     _TRIS_ANS_Setup
                        _analogSetup
                           _rfmSetup
 ---------------------------------------------------------------------------------
 (2) _rfmSetup                                             1     1      0       0
                                              1 COMMON     1     1      0
                         _resetRadio
                    _spi_init_master
 ---------------------------------------------------------------------------------
 (3) _spi_init_master                                      0     0      0       0
 ---------------------------------------------------------------------------------
 (3) _resetRadio                                           1     1      0       0
                                              0 COMMON     1     1      0
 ---------------------------------------------------------------------------------
 (2) _analogSetup                                          0     0      0       0
 ---------------------------------------------------------------------------------
 (2) _TRIS_ANS_Setup                                       0     0      0       0
 ---------------------------------------------------------------------------------
 (1) _getOperatingMode                                     5     5      0    6817
                                             12 COMMON     2     2      0
                                              3 BANK0      3     3      0
                           _sendBulk
 ---------------------------------------------------------------------------------
 (1) _getModeFlags                                         5     5      0    6850
                                             12 COMMON     2     2      0
                                              3 BANK0      3     3      0
                           _sendBulk
 ---------------------------------------------------------------------------------
 (1) _getFifoFlags                                         5     5      0    6850
                                             12 COMMON     2     2      0
                                              3 BANK0      3     3      0
                           _sendBulk
 ---------------------------------------------------------------------------------
 (2) _sendBulk                                             9     7      2    6712
                                              6 COMMON     6     4      2
                                              0 BANK0      3     3      0
                               _send
                     _setPinWithMask
 ---------------------------------------------------------------------------------
 (3) _setPinWithMask                                       6     2      4    1478
                                              0 COMMON     6     2      4
 ---------------------------------------------------------------------------------
 (3) _send                                                 5     4      1     876
                                              0 COMMON     5     4      1
 ---------------------------------------------------------------------------------
 Estimated maximum stack depth 4
 ---------------------------------------------------------------------------------

 Call Graph Graphs:

 _main (ROOT)
   _getFifoFlags
     _sendBulk
       _send
       _setPinWithMask
   _getModeFlags
     _sendBulk
   _getOperatingMode
     _sendBulk
   _init
     _TRIS_ANS_Setup
     _analogSetup
     _rfmSetup
       _resetRadio
       _spi_init_master
   _initRadio
     _setModulationThreshold
       _sendBulk
     _setNodeAddress
       _sendBulk
     _setPacketFormat
       _sendBulk
     _setPacketLength
       _sendBulk
     _setPreambleLength
       _sendBulk
     _setRSSIThreshold
       _sendBulk
     _setRecommendedParams
       _sendPairs
         _sendBulk
     _setSyncWords
       _sendBulk
   _sendPayload
     _send
     _setPinWithMask
   _setAutoMode
     _sendBulk
   _setModulationThreshold
   _setOperatingMode
     _sendBulk
   _setPowerOutput
     _sendBulk
   _thermistor_temp
     ___fladd
       ___fldiv (ARG)
         ___flmul (ARG)
           __Umul8_16
         ___xxtofl (ARG)
       ___flmul (ARG)
       ___xxtofl (ARG)
     ___fldiv
     ___flsub
       ___fladd
       ___fldiv (ARG)
       ___flmul (ARG)
     ___xxtofl
     _logf
       ___fladd
       ___fldiv
       ___flmul
       ___flsub
       ___xxtofl

 Address spaces:
Name               Size   Autos  Total    Cost      Usage
BIGRAM             3F0      0       0       0        0.0%
NULL                 0      0       0       0        0.0%
CODE                 0      0       0       0        0.0%
BITCOMMON            E      0       0       1        0.0%
BITSFR0              0      0       0       1        0.0%
SFR0                 0      0       0       1        0.0%
COMMON               E      E       E       2      100.0%
BITSFR1              0      0       0       2        0.0%
SFR1                 0      0       0       2        0.0%
BITSFR2              0      0       0       3        0.0%
SFR2                 0      0       0       3        0.0%
STACK                0      0       0       3        0.0%
BITBANK0            50      0       0       4        0.0%
BITSFR3              0      0       0       4        0.0%
SFR3                 0      0       0       4        0.0%
BANK0               50     50      50       5      100.0%
BITSFR4              0      0       0       5        0.0%
SFR4                 0      0       0       5        0.0%
BITBANK1            50      0       0       6        0.0%
BITSFR5              0      0       0       6        0.0%
SFR5                 0      0       0       6        0.0%
BANK1               50     4E      50       7      100.0%
BITSFR6              0      0       0       7        0.0%
SFR6                 0      0       0       7        0.0%
BITBANK2            50      0       0       8        0.0%
BITSFR7              0      0       0       8        0.0%
SFR7                 0      0       0       8        0.0%
BANK2               50     10      4D       9       96.2%
BITSFR8              0      0       0       9        0.0%
SFR8                 0      0       0       9        0.0%
BITBANK3            50      0       0      10        0.0%
BITSFR9              0      0       0      10        0.0%
SFR9                 0      0       0      10        0.0%
BANK3               50     4C      4F      11       98.8%
BITSFR10             0      0       0      11        0.0%
SFR10                0      0       0      11        0.0%
BITBANK4            50      0       0      12        0.0%
BITSFR11             0      0       0      12        0.0%
SFR11                0      0       0      12        0.0%
BANK4               50      0       A      13       12.5%
BITSFR12             0      0       0      13        0.0%
SFR12                0      0       0      13        0.0%
BITBANK5            50      0       0      14        0.0%
BITSFR13             0      0       0      14        0.0%
SFR13                0      0       0      14        0.0%
BANK5               50      0      4B      15       93.8%
BITSFR14             0      0       0      15        0.0%
SFR14                0      0       0      15        0.0%
BITBANK6            50      0       0      16        0.0%
BITSFR15             0      0       0      16        0.0%
SFR15                0      0       0      16        0.0%
BANK6               50      0       0      17        0.0%
BITSFR16             0      0       0      17        0.0%
SFR16                0      0       0      17        0.0%
BITBANK7            50      0       0      18        0.0%
BITSFR17             0      0       0      18        0.0%
SFR17                0      0       0      18        0.0%
BANK7               50      0       0      19        0.0%
BITSFR18             0      0       0      19        0.0%
SFR18                0      0       0      19        0.0%
BITSFR19             0      0       0      20        0.0%
SFR19                0      0       0      20        0.0%
ABS                  0      0     19F      20        0.0%
BITBANK8            50      0       0      21        0.0%
BITSFR20             0      0       0      21        0.0%
SFR20                0      0       0      21        0.0%
BANK8               50      0       0      22        0.0%
BITSFR21             0      0       0      22        0.0%
SFR21                0      0       0      22        0.0%
BITBANK9            50      0       0      23        0.0%
BITSFR22             0      0       0      23        0.0%
SFR22                0      0       0      23        0.0%
BANK9               50      0       0      24        0.0%
BITSFR23             0      0       0      24        0.0%
SFR23                0      0       0      24        0.0%
BITBANK10           50      0       0      25        0.0%
BITSFR24             0      0       0      25        0.0%
SFR24                0      0       0      25        0.0%
BANK10              50      0       0      26        0.0%
BITSFR25             0      0       0      26        0.0%
SFR25                0      0       0      26        0.0%
BITBANK11           50      0       0      27        0.0%
BITSFR26             0      0       0      27        0.0%
SFR26                0      0       0      27        0.0%
BANK11              50      0       0      28        0.0%
BITSFR27             0      0       0      28        0.0%
SFR27                0      0       0      28        0.0%
BITBANK12           30      0       0      29        0.0%
BITSFR28             0      0       0      29        0.0%
SFR28                0      0       0      29        0.0%
BANK12              30      0       0      30        0.0%
BITSFR29             0      0       0      30        0.0%
SFR29                0      0       0      30        0.0%
BITSFR30             0      0       0      31        0.0%
SFR30                0      0       0      31        0.0%
DATA                 0      0     19F      31        0.0%
BITSFR31             0      0       0      32        0.0%
SFR31                0      0       0      32        0.0%


Microchip Technology PIC Macro Assembler V2.32 build 20210201212658 
Symbol Table                                                                                   Wed Sep 15 01:02:49 2021

                   ___fldiv@aexp 004E                     ___fldiv@bexp 004D                     ___fldiv@sign 0046  
                             _GO 04E9                               l99 1531                       _SYNC_WORDS 0120  
            __Umul8_16@word_mpld 0076                              l102 150C                              l111 1552  
                            l105 157A                              l201 1591                              l114 0A8A  
                            l131 1565                              l108 1522                              l116 0A8E  
                            l117 0C13                              l125 09A1                              l214 16B7  
                            l230 15A8                              l206 1625                              l209 1540  
                            l233 176A                              l170 091F                              l154 17B4  
                            l171 0931                              l163 08D2                              l244 0868  
                            l165 08D8                              l181 0045                              l254 15C1  
                            l238 163E                              l159 08CC                              l191 165C  
                            l176 1740                              l264 15F3                              l274 15DA  
                            l186 167A                              l196 1698                              l701 0F9D  
                            l712 0FF6                              l704 0FD4                              l713 0FFF  
                            l810 09F6                              l299 160C                              l716 16D7  
                            l812 0A7F                              l750 0DBE                              l742 0D49  
                            l726 0C6B                              l670 0E26                              l823 0A4B  
                            l728 0DC7                              l824 0A57                              l816 0A31  
                            l674 0EC7                              l747 0D95                              l691 0F59  
                            l683 0FFF                              l748 0DAF                              l772 0218  
                            l676 0EA3                              l766 029C                              l695 0F7B  
                            l848 07C9                              l785 170A                              l778 0290  
                            l787 171A               setPacketFormat@msg 0023               setPacketLength@msg 0023  
                            _Lg1 180C                              _Lg2 1808                              _Lg3 1804  
                            _Lg4 1800           __end_of_TRIS_ANS_Setup 1532                              wreg 0009  
                   ___flmul@aexp 002D                     ___flmul@bexp 002E           _setModulationThreshold 1699  
                   ___flmul@sign 0028                     ___flmul@temp 0033                     ___flmul@prod 002F  
                           l2001 0F48                             l2011 0F6F                             l2003 0F51  
                           l2101 176D                             l2021 0F84                             l2013 0F76  
                           l2005 0F61                             l2111 17A1                             l2103 1771  
                           l2031 0F94                             l2023 0F89                             l2015 0F7A  
                           l2007 0F66                             l2113 17A6                             l2201 0CFE  
                           l2121 0C14                             l2041 0FAF                             l2033 0F9A  
                           l2017 0F7F                             l2025 0F8B                             l2107 177F  
                           l2211 0D19                             l2203 0D02                             l2131 0C28  
                           l2123 0C1A                             l2051 0FE6                             l2043 0FB3  
                           l2019 0F82                             l2027 0F8F                             l2115 16B8  
                           l2109 1795                             l2221 0D2D                             l2213 0D1D  
                           l2205 0D08                             l2141 0C40                             l2133 0C2D  
                           l2125 0C1E                             l2301 00A5                             l2061 0FFA  
                           l2053 0FEB                             l2045 0FD0                             l2037 0FA2  
                           l2029 0F90                             l2117 16BB                             l2231 0D4E  
                           l2223 0D2E                             l2215 0D1E                             l2207 0D10  
                           l2151 0C53                             l2143 0C45                             l2135 0C35  
                           l2127 0C22                             l2071 1706                             l2311 00E2  
                           l2063 0FFE                             l2055 0FEC                             l2047 0FD9  
                           l2039 0FA7                             l2081 1568                             l2233 0D53  
                           l2241 0D7B                             l2225 0D32                             l2217 0D25  
                           l2209 0D12                             l2161 0C73                             l2153 0C58  
                           l2145 0C49                             l2137 0C36                             l2129 0C23  
                           l2073 1711                             l2065 16F9                             l2321 012A  
                           l2313 00EF                             l2305 00AE                             l2057 0FF0  
                           l2049 0FDE                             l2401 09D5                             l2083 1570  
                           l2091 155A                             l2251 0DB4                             l2243 0D88  
                           l2235 0D5B                             l2227 0D46                             l2219 0D29  
                           l2171 0C91                             l2163 0C7F                             l2155 0C60  
                           l2147 0C4D                             l2139 0C38                             l2075 1716  
                           l2067 16FB                             l2331 0166                             l2323 0137  
                           l2315 0109                             l2307 00BB                             l2059 0FF2  
                           l2403 09DA                             l2093 155B                             l2085 1553  
                           l2253 0DB8                             l2245 0DA3                             l2237 0D5F  
                           l2181 0CBA                             l2165 0C83                             l2157 0C61  
                           l2149 0C4E                             l2069 1702                             l2341 01B7  
                           l2333 016D                             l2325 013E                             l2317 0116  
                           l2309 00C8                             l2261 0046                             l2421 0A22  
                           l2413 0A07                             l2405 09DE                             l2501 03A1  
                           l2079 1566                             l2095 155C                             l2087 1558  
                           l2255 0DBA                             l2247 0DA6                             l2239 0D77  
                           l2191 0CDB                             l2183 0CC2                             l2175 0C9A  
                           l2159 0C63                             l2351 01EC                             l2343 01CE  
                           l2335 0181                             l2327 014B                             l2319 0123  
                           l2271 005A                             l2263 004C                             l2431 0A4F  
                           l2423 0A2A                             l2415 0A0C                             l2407 09EE  
                           l2511 03C2                             l2503 03B0                             l2097 155F  
                           l2089 1559                             l2601 167F                             l2249 0DAE  
                           l2193 0CDC                             l2185 0CC4                             l2177 0CAA  
                           l2169 0C8C                             l2361 01FD                             l2353 01ED  
                           l2345 01D5                             l2337 018E                             l2329 0152  
                           l2281 0076                             l2273 005F                             l2265 0050  
                           l2441 0A77                             l2433 0A59                             l2425 0A38  
                           l2417 0A17                             l2409 09FE                             l2521 03FA  
                           l2513 03CE                             l2505 03B9                             l2451 1529  
                           l2099 1562                             l2603 1683                             l2611 1534  
                           l2187 0CC9                             l2195 0CE3                             l2179 0CB2  
                           l2371 0222                             l2363 0201                             l2355 01F4  
                           l2347 01E1                             l2339 01A2                             l2291 0089  
                           l2283 007A                             l2275 0067                             l2267 0054  
                           l2435 0A6D                             l2427 0A41                             l2419 0A1E  
                           l2531 04A0                             l2523 041E                             l2507 03C1  
                           l2461 152E                             l2453 152A                             l2445 1523  
                           l2613 1594                             l2605 168C                             l2197 0CF5  
                           l2189 0CD7                             l2381 0257                             l2373 022A  
                           l2365 0215                             l2349 01E8                             l2357 01F8  
                           l2293 0091                             l2285 007E                             l2277 0069  
                           l2269 0055                             l1901 0E08                             l2437 0A72  
                           l2429 0A45                             l2541 05B6                             l2533 04D2  
                           l2525 0426                             l2517 03D8                             l2701 0932  
                           l1831 1731                             l2463 152F                             l2455 152B  
                           l2447 1526                             l2471 1544                             l2607 157D  
                           l2615 159C                             l2199 0CF6                             l2391 0287  
                           l2383 0261                             l2375 022E                             l2359 01FC  
                           l2295 0093                             l2287 007F                             l2279 0071  
                           l1911 0E1C                             l1903 0E09                             l2439 0A76  
                           l2551 068E                             l2543 05E8                             l2535 0504  
                           l2527 0435                             l2519 03E1                             l2631 0A92  
                           l2623 0A80                             l2711 0957                             l2703 0935  
                           l1841 08F0                             l1833 08CE                             l2457 152C  
                           l2449 1528                             l2465 1508                             l2473 1547  
                           l2617 1519                             l2609 1585                             l2641 162A  
                           l2393 028B                             l2385 026F                             l2377 0246  
                           l2369 021D                             l2297 009B                             l2289 0084  
                           l1921 0E38                             l1905 0E0E                             l1913 0E1E  
                           l2553 06DC                             l2545 061A                             l2537 0544  
                           l2529 0458                             l2481 02D0                             l2633 0C04  
                           l2625 0A85                             l2721 0989                             l2713 095B  
                           l2705 0944                             l1851 0930                             l1843 08F6  
                           l1827 171B                             l2459 152D                             l2467 1541  
                           l2619 151F                             l2563 169B                             l2571 000A  
                           l2651 1615                             l2643 162E                             l2395 028C  
                           l2387 0278                             l2379 024A                             l2299 00A0  
                           l1931 0E4C                             l1923 0E3C                             l1915 0E2C  
                           l1907 0E13                             l2555 0724                             l2547 0646  
                           l2539 0576                             l2491 0349                             l2483 02E8  
                           l2475 029D                             l2627 0A86                             l2731 09C5  
                           l2723 0992                             l2715 0964                             l2707 0948  
                           l1845 08FA                             l1837 08D4                             l1829 1720  
                           l2469 1543                             l2565 169D                             l2581 0038  
                           l2637 1743                             l2661 1600                             l2653 1619  
                           l2645 1632                             l2397 0294                             l2389 027A  
                           l1941 0E60                             l1933 0E50                             l1925 0E40  
                           l1917 0E30                             l1909 0E1B                             l2557 0756  
                           l2549 0678                             l2493 034E                             l2485 0300  
                           l2477 02C5                             l2629 0A88                             l2725 0997  
                           l2717 096D                             l2709 094E                             l1847 0904  
                           l1839 08DC                             l1863 088A                             l1855 086B  
                           l2567 16A1                             l2591 1641                             l2583 165F  
                           l2575 0016                             l2655 15F6                             l2647 160F  
                           l2639 1628                             l1951 0E71                             l1943 0E64  
                           l1935 0E54                             l1927 0E44                             l1919 0E34  
                           l1871 0DC8                             l2559 0788                             l2479 02C7  
                           l2727 09B3                             l2719 0980                             l1849 090E  
                           l1865 08A3                             l1857 0881                             l2665 15AB  
                           l2673 15C4                             l2569 16AB                             l2593 1643  
                           l2585 1661                             l2577 0027                             l2681 080B  
                           l2657 15F8                             l2649 1611                             l1961 0EB3  
                           l1953 0E88                             l1945 0E68                             l1937 0E58  
                           l1929 0E48                             l1881 0DDC                             l1873 0DCE  
                           l2497 0380                             l2489 0332                             l2729 09BC  
                           l1867 08A7                             l1859 0884                             l2667 15B3  
                           l2675 15CC                             l2595 1647                             l2587 1665  
                           l2579 002B                             l2691 0851                             l2683 0829  
                           l2659 15FC                             l1971 0ED0                             l1963 0EB4  
                           l1955 0EA7                             l1947 0E6C                             l1939 0E5C  
                           l1891 0DF4                             l1883 0DE1                             l1875 0DD2  
                           l2499 0384                             l1869 08B4                             l2669 15BF  
                           l2677 15D8                             l2693 15DD                             l2597 1650  
                           l2589 166E                             l2685 082C                             l1981 0EE9  
                           l1965 0EBC                             l1957 0EAD                             l1949 0E70  
                           l1893 0DF9                             l1885 0DE9                             l1877 0DD6  
                           l2695 15E5                             l2599 167D                             l2687 083B  
                           l1991 0EFE                             l1983 0EEF                             l1975 0ED9  
                           l1959 0EAF                             l1967 0EC0                             l1895 0DFF  
                           l1887 0DEA                             l1879 0DD7                             l2697 15F1  
                           l2689 083F                             l1985 0EF1                             l1977 0EE1  
                           l1969 0ECB                             l1993 0F03                             l1897 0E00  
                           l1889 0DEC                             l1995 0F19                             l1987 0EF5  
                           l1979 0EE5                             l1899 0E04                             l1997 0F3D  
                           l1989 0EF6                             l1999 0F43                             _ADFM 04F7  
                           _ADON 04E8                             u2000 0C22                             u2001 0C21  
                           u2010 0C28                             u2011 0C27                             u2020 0C2D  
                           u2021 0C2C                             u2110 0CDB                             u2030 0C4D  
                           u2111 0CDA                             u2031 0C4C                             u2200 0D32  
                           u2040 0C53                             u2201 0D31                             u2105 0CD1  
                           u2041 0C52                             u2210 0D46                             u2130 0CF5  
                           u2050 0C58                             u2211 0D45                             u2131 0CF4  
                           u2051 0C57                             u1500 0889                             u2220 0D4D  
                           u2140 0D08                             u2060 0C73                             u2300 005A  
                           u1501 0888                             u2221 0D4C                             u2141 0D07  
                           u2125 0CDD                             u2061 0C72                             u2301 0059  
                           u1430 1720                             u1510 08B4                             u2230 0D53  
                           u2150 0D10                             u2070 0C91                             u2310 005F  
                           u1431 171F                             u1511 08B3                             u2231 0D52  
                           u2151 0D0F                             u2135 0CF1                             u2071 0C90  
                           u2311 005E                             u2240 0D5F                             u2080 0CC9  
                           u2400 01C4                             u2320 007E                             u1600 0E30  
                           u1520 0DD6                             u2241 0D5E                             u2081 0CC8  
                           u2321 007D                             u1601 0E2F                             u1521 0DD5  
                           u2250 0D6D                             u2170 0D1D                             u2330 0084  
                           u1610 0E88                             u1530 0DDC                             u1515 08B0  
                           u2171 0D1C                             u2331 0083                             u1611 0E87  
                           u1531 0DDB                             u1460 08D8                             u1444 1725  
                           u2260 0D88                             u2500 022E                             u2340 0089  
                           u1700 0EE5                             u1620 0E92                             u1540 0DE1  
                           u1461 08D7                             u1445 1724                             u2261 0D87  
                           u2165 0D13                             u2501 022D                             u2405 01C0  
                           u2341 0088                             u1701 0EE4                             u1621 0E90  
                           u1541 0DE0                             u1470 08DC                             u1454 1736  
                           u2270 0DA3                             u2190 0D2D                             u2510 023C  
                           u2430 01EC                             u2350 00A0                             u1710 0EE9  
                           u1630 0E93                             u1550 0DFF                             u1471 08DB  
                           u1455 1735                             u2271 0DA2                             u2255 0D69  
                           u2191 0D2C                             u2095 0CCA                             u2431 01EB  
                           u2415 01CF                             u2351 009F                             u1711 0EE8  
                           u1615 0E84                             u1551 0DFE                             u1480 08F0  
                           u2280 0DB8                             u2520 0257                             u2360 00A5  
                           u1800 0F7F                             u1720 0EF5                             u1640 0EA7  
                           u1560 0E08                             u1481 08EF                             u2281 0DB7  
                           u2265 0D84                             u2185 0D1F                             u2521 0256  
                           u2425 01E2                             u2361 00A4                             u1801 0F7E  
                           u1721 0EF4                             u1641 0EA6                             u1561 0E07  
                           u1490 0904                             u2530 026F                             u2450 01FC  
                           u2290 0054                             u1810 0F89                             u1650 0EB3  
                           u1570 0E0E                             u2610 0A37                             u1491 0903  
                           u2275 0D9F                             u2531 026E                             u2515 0238  
                           u2451 01FB                             u2291 0053                             u1811 0F88  
                           u1651 0EB2                             u1571 0E0D                             u2611 0A36  
                           u2540 028B                             u2460 0201                             u1900 0FD9  
                           u1820 0F8F                             u1740 0F19                             u1580 0E13  
                           u2700 02DE                             u2541 028A                             u2525 0253  
                           u2461 0200                             u2445 01EE                             u1901 0FD8  
                           u1821 0F8E                             u1741 0F18                             u1581 0E12  
                           u2605 0A2B                             u2470 0215                             u2390 01AD  
                           u1910 0FDE                             u1830 0F94                             u1750 0F48  
                           u1670 0EC7                             u1590 0E2C                             u2630 0A45  
                           u2550 09DA                             u2710 02E8                             u2535 026B  
                           u2471 0214                             u2375 0124                             u1911 0FDD  
                           u1831 0F93                             u1751 0F47                             u1743 0F15  
                           u1735 0EF8                             u1671 0EC6                             u1591 0E2B  
                           u2631 0A44                             u2551 09D9                             u2711 02E7  
                           u2480 021C                             u1920 0FEB                             u1840 0F9A  
                           u1760 0F61                             u1680 0ECB                             u2640 0A4B  
                           u2560 09DE                             u2720 02F6                             u2800 0A8E  
                           u2481 021B                             u2385 0153                             u1921 0FEA  
                           u1841 0F99                             u1761 0F60                             u1681 0ECA  
                           u1665 0EB6                             u2641 0A4A                             u2625 0A3B  
                           u2561 09DD                             u2705 02DA                             u2801 0A8D  
                           u2810 0851                             u2490 0222                             u1930 0FF0  
                           u1850 0FA1                             u1770 0F66                             u1690 0ED0  
                           u2650 0A4F                             u2570 09FE                             u2730 0300  
                           u2811 0850                             u2491 0221                             u2395 01A9  
                           u1931 0FEF                             u1851 0FA0                             u1771 0F65  
                           u1691 0ECF                             u2651 0A4E                             u2571 09FD  
                           u2731 02FF                             u1940 0FFE                             u1860 0FA7  
                           u2660 0A63                             u2740 033F                             u2820 0940  
                           u1941 0FFD                             u1861 0FA6                             u2725 02F2  
                           u1950 1706                             u1870 0FB3                             u1790 0F7A  
                           u2670 0A72                             u2590 0A1D                             u2750 0349  
                           u2830 0997                             u2815 084D                             u1951 1705  
                           u1871 0FB2                             u1791 0F79                             u2671 0A71  
                           u2591 0A1C                             u2751 0348                             u2831 0996  
                           u1880 0FC1                             u2680 0A76                             u2760 03C1  
                           u1785 0F70                             u2681 0A75                             u2665 0A5F  
                           u2585 0A11                             u2761 03C0                             u2745 033B  
                           u1970 1716                             u1890 0FD0                             u2770 03CE  
                           u2690 02D0                             u1971 1715                             u1891 0FCF  
                           u2771 03CD                             u2691 02CF                             u1980 177E  
                           u2780 03EE                             u1981 177D                             u1965 170B  
                           u1885 0FBD                             u1990 17B4                             u2790 0038  
                           u1991 17B3                             u2791 0037                             u1985 177A  
                           u2785 03EA                             u2857 09B7                             u2867 154D  
                           u1995 17B0                             u2795 0034                             u2877 156B  
                           u2887 1575                      main@payload 01A0                             _main 0932  
                           _init 1519                             _logf 029D                             _send 08CD  
                           fsr0h 0005                             fsr1h 0007                             indf0 0000  
                           fsr0l 0004                             indf1 0001                             fsr1l 0006  
                           _rssi 00EE                             btemp 007E                             start 0002  
                ___fldiv@new_exp 0047             setPacketFormat@F9440 013E             setPacketLength@F9428 0154  
                __end_of___fladd 1000                            ?_main 0070                            ?_init 0070  
                          ?_logf 006B                  __end_of___fldiv 0DC8                            ?_send 0070  
                __end_of___flmul 029D                            _ANSA4 0C64                  __end_of___flsub 16D8  
           setPacketFormat@radio 0025             setPacketLength@radio 0025                  ?_TRIS_ANS_Setup 0070  
                          _PORTA 000C                            _WPUA4 1064            getOperatingMode@F9489 0132  
        __size_of_setPowerOutput 0019                            _errno 0144             __end_of_getFifoFlags 15C2  
                getModeFlags@msg 0023                            logf@R 00A8                            logf@f 00E2  
                          logf@k 00C4                            logf@s 00CE                            logf@u 00DE  
                          logf@w 00D6                            logf@x 006B                            logf@z 00D2  
              ??_thermistor_temp 015D            setOperatingMode@F9445 014E                            status 0003  
                          wtemp0 007E             __size_of_analogSetup 0005       __size_of_setPreambleLength 0017  
          getOperatingMode@radio 0023                  __initialization 07CA                     __end_of_main 09D4  
                   __end_of_init 1523                     __end_of_logf 07CA                     __end_of_send 0932  
          setOperatingMode@radio 0025              setPinWithMask@pPort 0070             __end_of_getModeFlags 15DB  
                 _setNodeAddress 163F              setPinWithMask@value 0073           setPreambleLength@F9462 013A  
                   ?_setAutoMode 007C                           ??_main 006F                           ??_init 0072  
                         ??_logf 00A0                           ??_send 0071                     ?_sendPayload 0076  
               sendPayload@radio 007B           setPreambleLength@radio 0025            getRSSIThreshold@F9485 0134  
                         _ADRESH 009C                           _ANSELA 018C                           _ANSELC 018E  
              setPowerOutput@msg 0026                           _RC0PPS 0EA0                           _RC3PPS 0EA3  
          setRSSIThreshold@F9436 0150        thermistor_temp@resistance 0161                   _setPinWithMask 171B  
                         _TRISA2 0462                           _TRISC0 0470                           _TRISA4 0464  
                         _TRISC1 0471                           _TRISA5 0465                           _TRISC2 0472  
                         _TRISC3 0473                           _TRISC5 0475                getFifoFlags@F9481 0136  
               __end_of___xxtofl 0A80     __end_of_setRecommendedParams 1541           __end_of_setNodeAddress 165D  
          setRSSIThreshold@radio 0025         __end_of_setOperatingMode 1626                        ??___fladd 0057  
                         _ln2_hi 1814                        ??___fldiv 003D                           _ln2_lo 1810  
                      ??___flmul 0079                        ??___flsub 007E                getFifoFlags@radio 0025  
                _setPacketFormat 157B                  _setPacketLength 165D                 __end_of_rfmSetup 1553  
               __end_of_sendBulk 08CD                           logf@t1 00AC                           logf@t2 00B0  
                         logf@dk 00CA                           logf@ix 00E6               __size_of__Umul8_16 0023  
         __end_of_setPinWithMask 1741                     ___xxtofl@arg 007A                     ___xxtofl@exp 0079  
                   ___xxtofl@val 0070          __end_of__initialization 07FD                   __pcstackCOMMON 0070  
                ?_setNodeAddress 0070        __size_of_getOperatingMode 0019        __size_of_setRSSIThreshold 001E  
                   __pidataBANK2 16D8                     __pidataBANK4 0800                     __pidataBANK5 17B5  
          getPowerSettings@F9514 0128          ?_setModulationThreshold 0070            __size_of_getFifoFlags 0019  
  setOperatingMode@operatingMode 007C                   _setPowerOutput 1626                  ?_setPinWithMask 0070  
                     __pbssBANK1 00EE                       __pbssBANK2 0140                       __pbssBANK3 01EC  
                  sendBulk@radio 0022         __size_of_spi_init_master 0013               __size_of_initRadio 002A  
          __size_of_getModeFlags 0019                      sendBulk@len 0077          __end_of_setPacketFormat 1592  
        __end_of_setPacketLength 167B                __end_of__Umul8_16 171B                       __pmaintext 0932  
             __size_of_sendPairs 004A                     _getFifoFlags 15A9                 ??_TRIS_ANS_Setup 0070  
 __end_of_setModulationThreshold 16B8                  _thermistor_temp 0A80             __size_of_setAutoMode 0019  
                      ?___xxtofl 0070           __end_of_setPowerOutput 163F                    sendPairs@msgs 0023  
           __size_of_sendPayload 005F                          _SSP1BUF 0211             _setRecommendedParams 1532  
                  ?_setSyncWords 0070                     _getModeFlags 15C2        setModulationThreshold@msg 0023  
           setAutoMode@autoModes 007C                        ?_rfmSetup 0070                        ?_sendBulk 0076  
           _thermistor_temp$1134 0165                          ___fladd 0DC8                          ___fldiv 0C14  
                        ___flmul 0046                          ___flsub 16B8              setNodeAddress@F9432 0152  
              setSyncWords@radio 002D                          __ptext1 0A80                          __ptext2 029D  
                        __ptext3 09D4                          __ptext4 16B8                          __ptext5 0DC8  
                        __ptext6 0046                          __ptext7 16F8                          __ptext8 0C14  
                        __ptext9 1626                getModeFlags@F9498 0130                __end_of_initRadio 176B  
                     ??___xxtofl 0074                  ?_setPowerOutput 007C                   initRadio@radio 0030  
            setNodeAddress@radio 0025            ?_setRecommendedParams 0070                   ??_setSyncWords 007C  
                        clrloop0 150E                __end_of_sendPairs 17B5             end_of_initialization 07FD  
              getModeFlags@radio 0025             checkForPayload@F9455 013C                    ??_analogSetup 0070  
                        init_ram 1513                          initloop 1514                          send@msg 0070  
                     ??_rfmSetup 0071                       ??_sendBulk 0078                       _resetRadio 1566  
               ?_setPacketFormat 0070                 ?_setPacketLength 0070                ??_spi_init_master 0070  
               _getOperatingMode 15DB                 _setRSSIThreshold 167B                ?_setOperatingMode 007C  
        __end_of_thermistor_temp 0C14               ??_setOperatingMode 0023                        _PORTAbits 000C  
                      _PORTCbits 000E                        _SSPDATPPS 0E21                      ___fladd@grs 0062  
                  ___xxtofl@sign 0078                      ___fldiv@grs 0049                      ___fldiv@rem 0042  
                     _rssiThresh 00EF                      ___flmul@grs 0029                 ??_setNodeAddress 007C  
            __end_of_analogSetup 150D             setPreambleLength@msg 0023           checkRSSISampling@F9502 012E  
                 __end_of_ln2_hi 1818                   __end_of_ln2_lo 1814                  getFifoFlags@msg 0023  
            start_initialization 07CA                 ??_setPinWithMask 0074           ??_setRecommendedParams 002B  
                    __end_of_Lg1 1810                      __end_of_Lg2 180C                      __end_of_Lg3 1808  
                    __end_of_Lg4 1804               setPinWithMask@iPin 0072                      ?_resetRadio 0070  
         startRSSISampling@F9506 012C                  setSyncWords@msg 0023             setDiodeMapping@F9494 0148  
              setNodeAddress@msg 0023                 ?_thermistor_temp 00EA                        __Umul8_16 16F8  
           __end_of_setSyncWords 0046                      __pdataBANK2 0120                      __pdataBANK4 0220  
                    __pdataBANK5 02A0                        ___fladd@a 0053                        ___fladd@b 004F  
                      ___fldiv@a 0035                        ___fldiv@b 0039                        ___flmul@a 0024  
                      ___flmul@b 0020                        ___flsub@a 0063                        ___flsub@b 0067  
                      ___latbits 0002                    __pcstackBANK0 0020                    __pcstackBANK1 00A0  
                  __pcstackBANK2 015D                    __pcstackBANK3 01A0                __size_of___xxtofl 00AC  
                    _analogSetup 1508                    setSyncWords@i 002E        setRecommendedParams@radio 002C  
                   sendBulk@msgs 0076               sendPayload@payload 0076                __size_of_rfmSetup 0012  
    setModulationThreshold@F9451 014C                __size_of_sendBulk 0064                       sendPairs@i 0029  
                      _fifoFlags 01EE                         ?___fladd 004F                         ?___fldiv 0035  
                       ?___flmul 0020                         ?___flsub 0063                       ?__Umul8_16 0070  
                 _thermistorTemp 0159                 ??_setPowerOutput 0023                    ??_setAutoMode 0023  
                      _logf$1135 00DA                        _logf$1136 00B4                        _logf$1137 00B8  
                      _logf$1138 00BC                        _logf$1139 00C0                     sendPairs@len 0024  
                   sendPairs@msg 0027              setPowerOutput@F9469 014A                    ??_sendPayload 0077  
    setModulationThreshold@radio 0025                   setAutoMode@msg 0026              __size_of_resetRadio 0015  
                   sendPayload@i 0079                        _initRadio 1741         __end_of_getOperatingMode 15F4  
       __end_of_setRSSIThreshold 1699                        _modeFlags 01ED                   sendPairs@F9406 0156  
            setPowerOutput@radio 0025                  _spi_init_master 1553                        _sendPairs 176B  
                   getRSSI@F9477 0138                    _operatingMode 01EC                        clear_ram0 150D  
                 sendPairs@radio 0026                   restartRx@F9510 012A                        main@F9844 02A0  
               setAutoMode@F9519 0146                       _ADCON0bits 009D                        main@radio 01A1  
            __end_of_setAutoMode 160D                       ?_initRadio 0070          __size_of_TRIS_ANS_Setup 000F  
      __size_of_setOperatingMode 0019              __end_of_sendPayload 0869                 setAutoMode@radio 0025  
            getOperatingMode@msg 0024              setOperatingMode@msg 0026                       ?_sendPairs 0023  
          __size_of_setSyncWords 003E         ??_setModulationThreshold 007C              setRSSIThreshold@msg 0023  
                    ??__Umul8_16 0072                 __size_of___fladd 0238                 __size_of___fldiv 01B4  
               __size_of___flmul 0257                 __size_of___flsub 0020         __size_of_setPacketFormat 0017  
       __size_of_setPacketLength 001E                         ___xxtofl 09D4          __end_of_spi_init_master 1566  
                      send@radio 0074                        sendBulk@i 0020                         __ptext10 160D  
                       __ptext11 15F4                         __ptext20 157B                         __ptext12 080A  
                       __ptext21 163F                         __ptext13 1741                         __ptext30 15C2  
                       __ptext22 1699                         __ptext14 0008                         __ptext31 15A9  
                       __ptext23 1519                         __ptext15 1532                         __ptext32 0869  
                       __ptext24 1541                         __ptext16 176B                         __ptext33 171B  
                       __ptext25 1553                         __ptext17 167B                         __ptext34 08CD  
                       __ptext26 1566                         __ptext18 1592                         __ptext27 1508  
                       __ptext19 165D                         __ptext28 1523                         __ptext29 15DB  
                   _SSP1CON1bits 0215                     _setSyncWords 0008                    __size_of_main 00A2  
                  __size_of_init 000A                    __size_of_logf 052D                    __size_of_send 0065  
                   ??_resetRadio 0070                         _rfmSetup 1541                         _sendBulk 0869  
                  ?_getFifoFlags 0070                     _SSP1STATbits 0214                      _setAutoMode 15F4  
                       logf@F472 0140                      _sendPayload 080A                         logf@hfsq 00C6  
                    ??_initRadio 007E               __end_of_resetRadio 157B    __size_of_setRecommendedParams 000F  
                  ?_getModeFlags 0070                         send@temp 0073                     ?_analogSetup 0070  
             _recommended_params 0220                      ??_sendPairs 007C                      _SSP1CONbits 0215  
    setPowerOutput@powerSettings 007C                _setPreambleLength 1592  __size_of_setModulationThreshold 001F  
                 ??_getFifoFlags 007C               ?_setPreambleLength 0070          __size_of_setNodeAddress 001E  
                  __pstringtext1 1800                    __pstringtext2 1804                    __pstringtext3 1808  
                  __pstringtext4 180C                    __pstringtext5 1810                    __pstringtext6 1814  
         __Umul8_16@multiplicand 0070              ??_setPreambleLength 007C                    _powerSettings 0158  
       __size_of_thermistor_temp 0194                 ?_spi_init_master 0070                   _TRIS_ANS_Setup 1523  
     thermistor_temp@temperature 0169                ??_setPacketFormat 007C                ??_setPacketLength 007C  
               _setOperatingMode 160D                   ??_getModeFlags 007C                ?_getOperatingMode 0070  
              ?_setRSSIThreshold 0070                    ___fladd@signs 005F               ??_getOperatingMode 007C  
             ??_setRSSIThreshold 007C                     ___fladd@aexp 0060                     ___fladd@bexp 0061  
        __size_of_setPinWithMask 0026             __Umul8_16@multiplier 0078        __end_of_setPreambleLength 15A9  
              __Umul8_16@product 0074  
